

Microchip MPLAB XC8 Assembler V3.00 build 20241204225717 
                                                                                               Sun Jun 15 12:16:56 2025

Microchip MPLAB XC8 C Compiler v3.00 (Free license) build 20241204225717 Og1 
     1                           	processor	16F877A
     2                           	pagewidth 120
     3                           	opt	flic
     4                           	psect	strings,global,class=STRING,space=0,delta=2,noexec
     5                           	psect	cinit,global,class=CODE,space=0,merge=1,delta=2
     6                           	psect	bssCOMMON,global,class=COMMON,space=1,delta=1,noexec
     7                           	psect	bssBANK1,global,class=BANK1,space=1,delta=1,noexec
     8                           	psect	clrtext,global,class=CODE,space=0,delta=2
     9                           	psect	cstackBANK3,global,class=BANK3,space=1,delta=1,noexec
    10                           	psect	cstackBANK1,global,class=BANK1,space=1,delta=1,noexec
    11                           	psect	cstackCOMMON,global,class=COMMON,space=1,delta=1,noexec
    12                           	psect	cstackBANK0,global,class=BANK0,space=1,delta=1,noexec
    13                           	psect	maintext,global,class=CODE,space=0,split=1,delta=2
    14                           	psect	text1,local,class=CODE,space=0,merge=1,delta=2,group=2
    15                           	psect	text2,local,class=CODE,space=0,merge=1,delta=2
    16                           	psect	text3,local,class=CODE,space=0,merge=1,delta=2
    17                           	psect	text4,local,class=CODE,space=0,merge=1,delta=2
    18                           	psect	text5,local,class=CODE,space=0,merge=1,delta=2
    19                           	psect	text6,local,class=CODE,space=0,merge=1,delta=2
    20                           	psect	text7,local,class=CODE,space=0,merge=1,delta=2
    21                           	psect	text8,local,class=CODE,space=0,merge=1,delta=2
    22                           	psect	text9,local,class=CODE,space=0,merge=1,delta=2
    23                           	psect	text10,local,class=CODE,space=0,merge=1,delta=2
    24                           	psect	text11,local,class=CODE,space=0,merge=1,delta=2,group=1
    25                           	psect	text12,local,class=CODE,space=0,merge=1,delta=2,group=1
    26                           	psect	text13,local,class=CODE,space=0,merge=1,delta=2,group=1
    27                           	psect	text14,local,class=CODE,space=0,merge=1,delta=2,group=1
    28                           	psect	text15,local,class=CODE,space=0,merge=1,delta=2,group=1
    29                           	psect	text16,local,class=CODE,space=0,merge=1,delta=2,group=1
    30                           	psect	text17,local,class=CODE,space=0,merge=1,delta=2
    31                           	psect	text18,local,class=CODE,space=0,merge=1,delta=2
    32                           	psect	text19,local,class=CODE,space=0,merge=1,delta=2
    33                           	psect	text20,local,class=CODE,space=0,merge=1,delta=2
    34                           	psect	text21,local,class=CODE,space=0,merge=1,delta=2
    35                           	psect	text22,local,class=CODE,space=0,merge=1,delta=2
    36                           	psect	text23,local,class=CODE,space=0,merge=1,delta=2
    37                           	psect	text24,local,class=CODE,space=0,merge=1,delta=2
    38                           	psect	text25,local,class=CODE,space=0,merge=1,delta=2
    39                           	psect	text26,local,class=CODE,space=0,merge=1,delta=2
    40                           	psect	text27,local,class=CODE,space=0,merge=1,delta=2
    41                           	psect	text28,local,class=CODE,space=0,merge=1,delta=2
    42                           	psect	intentry,global,class=CODE,space=0,delta=2
    43                           	psect	config,global,abs,ovrld,class=CONFIG,space=4,delta=2,noexec
    44                           	dabs	1,0x7E,2
    45     0000                     
    46                           ; Generated 26/03/2025 GMT
    47                           ; 
    48                           ; Copyright © 2025, Microchip Technology Inc. and its subsidiaries ("Microchip")
    49                           ; All rights reserved.
    50                           ; 
    51                           ; This software is developed by Microchip Technology Inc. and its subsidiaries ("Microch
      +                          ip").
    52                           ; 
    53                           ; Redistribution and use in source and binary forms, with or without modification, are
    54                           ; permitted provided that the following conditions are met:
    55                           ; 
    56                           ;     1. Redistributions of source code must retain the above copyright notice, this lis
      +                          t of
    57                           ;        conditions and the following disclaimer.
    58                           ; 
    59                           ;     2. Redistributions in binary form must reproduce the above copyright notice, this 
      +                          list
    60                           ;        of conditions and the following disclaimer in the documentation and/or other
    61                           ;        materials provided with the distribution. Publication is not required when
    62                           ;        this file is used in an embedded application.
    63                           ; 
    64                           ;     3. Microchip's name may not be used to endorse or promote products derived from th
      +                          is
    65                           ;        software without specific prior written permission.
    66                           ; 
    67                           ; THIS SOFTWARE IS PROVIDED BY MICROCHIP "AS IS" AND ANY EXPRESS OR IMPLIED WARRANTIES,
    68                           ; INCLUDING, BUT NOT LIMITED TO, THE IMPLIED WARRANTIES OF MERCHANTABILITY AND FITNESS F
      +                          OR
    69                           ; PURPOSE ARE DISCLAIMED.  IN NO EVENT SHALL MICROCHIP BE LIABLE FOR ANY DIRECT, INDIREC
      +                          T,
    70                           ; INCIDENTAL, SPECIAL, EXEMPLARY, OR CONSEQUENTIAL DAMAGES (INCLUDING BUT NOT LIMITED TO
    71                           ; PROCUREMENT OF SUBSTITUTE GOODS OR SERVICES; LOSS OF USE, DATA OR PROFITS; OR BUSINESS
    72                           ; INTERRUPTION) HOWSOEVER CAUSED AND ON ANY THEORY OF LIABILITY, WHETHER IN CONTRACT, ST
      +                          RICT
    73                           ; LIABILITY, OR TORT (INCLUDING NEGLIGENCE OR OTHERWISE) ARISING IN ANY WAY OUT OF THE U
      +                          SE OF
    74                           ; THIS SOFTWARE, EVEN IF ADVISED OF THE POSSIBILITY OF SUCH DAMAGE.
    75                           ; 
    76                           ; 
    77                           ; Code-generator required, PIC16F877A Definitions
    78                           ; 
    79                           ; SFR Addresses
    80     0004                     fsr             equ	4
    81     0004                     fsr0            equ	4
    82     0000                     indf            equ	0
    83     0000                     indf0           equ	0
    84     0002                     pc              equ	2
    85     0002                     pcl             equ	2
    86     000A                     pclath          equ	10
    87     0003                     status          equ	3
    88     0000                     INDF            equ	0	;# 
    89     0001                     TMR0            equ	1	;# 
    90     0002                     PCL             equ	2	;# 
    91     0003                     STATUS          equ	3	;# 
    92     0004                     FSR             equ	4	;# 
    93     0005                     PORTA           equ	5	;# 
    94     0006                     PORTB           equ	6	;# 
    95     0007                     PORTC           equ	7	;# 
    96     0008                     PORTD           equ	8	;# 
    97     0009                     PORTE           equ	9	;# 
    98     000A                     PCLATH          equ	10	;# 
    99     000B                     INTCON          equ	11	;# 
   100     000C                     PIR1            equ	12	;# 
   101     000D                     PIR2            equ	13	;# 
   102     000E                     TMR1            equ	14	;# 
   103     000E                     TMR1L           equ	14	;# 
   104     000F                     TMR1H           equ	15	;# 
   105     0010                     T1CON           equ	16	;# 
   106     0011                     TMR2            equ	17	;# 
   107     0012                     T2CON           equ	18	;# 
   108     0013                     SSPBUF          equ	19	;# 
   109     0014                     SSPCON          equ	20	;# 
   110     0015                     CCPR1           equ	21	;# 
   111     0015                     CCPR1L          equ	21	;# 
   112     0016                     CCPR1H          equ	22	;# 
   113     0017                     CCP1CON         equ	23	;# 
   114     0018                     RCSTA           equ	24	;# 
   115     0019                     TXREG           equ	25	;# 
   116     001A                     RCREG           equ	26	;# 
   117     001B                     CCPR2           equ	27	;# 
   118     001B                     CCPR2L          equ	27	;# 
   119     001C                     CCPR2H          equ	28	;# 
   120     001D                     CCP2CON         equ	29	;# 
   121     001E                     ADRESH          equ	30	;# 
   122     001F                     ADCON0          equ	31	;# 
   123     0081                     OPTION_REG      equ	129	;# 
   124     0085                     TRISA           equ	133	;# 
   125     0086                     TRISB           equ	134	;# 
   126     0087                     TRISC           equ	135	;# 
   127     0088                     TRISD           equ	136	;# 
   128     0089                     TRISE           equ	137	;# 
   129     008C                     PIE1            equ	140	;# 
   130     008D                     PIE2            equ	141	;# 
   131     008E                     PCON            equ	142	;# 
   132     0091                     SSPCON2         equ	145	;# 
   133     0092                     PR2             equ	146	;# 
   134     0093                     SSPADD          equ	147	;# 
   135     0094                     SSPSTAT         equ	148	;# 
   136     0098                     TXSTA           equ	152	;# 
   137     0099                     SPBRG           equ	153	;# 
   138     009C                     CMCON           equ	156	;# 
   139     009D                     CVRCON          equ	157	;# 
   140     009E                     ADRESL          equ	158	;# 
   141     009F                     ADCON1          equ	159	;# 
   142     010C                     EEDATA          equ	268	;# 
   143     010D                     EEADR           equ	269	;# 
   144     010E                     EEDATH          equ	270	;# 
   145     010F                     EEADRH          equ	271	;# 
   146     018C                     EECON1          equ	396	;# 
   147     018D                     EECON2          equ	397	;# 
   148     0000                     INDF            equ	0	;# 
   149     0001                     TMR0            equ	1	;# 
   150     0002                     PCL             equ	2	;# 
   151     0003                     STATUS          equ	3	;# 
   152     0004                     FSR             equ	4	;# 
   153     0005                     PORTA           equ	5	;# 
   154     0006                     PORTB           equ	6	;# 
   155     0007                     PORTC           equ	7	;# 
   156     0008                     PORTD           equ	8	;# 
   157     0009                     PORTE           equ	9	;# 
   158     000A                     PCLATH          equ	10	;# 
   159     000B                     INTCON          equ	11	;# 
   160     000C                     PIR1            equ	12	;# 
   161     000D                     PIR2            equ	13	;# 
   162     000E                     TMR1            equ	14	;# 
   163     000E                     TMR1L           equ	14	;# 
   164     000F                     TMR1H           equ	15	;# 
   165     0010                     T1CON           equ	16	;# 
   166     0011                     TMR2            equ	17	;# 
   167     0012                     T2CON           equ	18	;# 
   168     0013                     SSPBUF          equ	19	;# 
   169     0014                     SSPCON          equ	20	;# 
   170     0015                     CCPR1           equ	21	;# 
   171     0015                     CCPR1L          equ	21	;# 
   172     0016                     CCPR1H          equ	22	;# 
   173     0017                     CCP1CON         equ	23	;# 
   174     0018                     RCSTA           equ	24	;# 
   175     0019                     TXREG           equ	25	;# 
   176     001A                     RCREG           equ	26	;# 
   177     001B                     CCPR2           equ	27	;# 
   178     001B                     CCPR2L          equ	27	;# 
   179     001C                     CCPR2H          equ	28	;# 
   180     001D                     CCP2CON         equ	29	;# 
   181     001E                     ADRESH          equ	30	;# 
   182     001F                     ADCON0          equ	31	;# 
   183     0081                     OPTION_REG      equ	129	;# 
   184     0085                     TRISA           equ	133	;# 
   185     0086                     TRISB           equ	134	;# 
   186     0087                     TRISC           equ	135	;# 
   187     0088                     TRISD           equ	136	;# 
   188     0089                     TRISE           equ	137	;# 
   189     008C                     PIE1            equ	140	;# 
   190     008D                     PIE2            equ	141	;# 
   191     008E                     PCON            equ	142	;# 
   192     0091                     SSPCON2         equ	145	;# 
   193     0092                     PR2             equ	146	;# 
   194     0093                     SSPADD          equ	147	;# 
   195     0094                     SSPSTAT         equ	148	;# 
   196     0098                     TXSTA           equ	152	;# 
   197     0099                     SPBRG           equ	153	;# 
   198     009C                     CMCON           equ	156	;# 
   199     009D                     CVRCON          equ	157	;# 
   200     009E                     ADRESL          equ	158	;# 
   201     009F                     ADCON1          equ	159	;# 
   202     010C                     EEDATA          equ	268	;# 
   203     010D                     EEADR           equ	269	;# 
   204     010E                     EEDATH          equ	270	;# 
   205     010F                     EEADRH          equ	271	;# 
   206     018C                     EECON1          equ	396	;# 
   207     018D                     EECON2          equ	397	;# 
   208     0000                     INDF            equ	0	;# 
   209     0001                     TMR0            equ	1	;# 
   210     0002                     PCL             equ	2	;# 
   211     0003                     STATUS          equ	3	;# 
   212     0004                     FSR             equ	4	;# 
   213     0005                     PORTA           equ	5	;# 
   214     0006                     PORTB           equ	6	;# 
   215     0007                     PORTC           equ	7	;# 
   216     0008                     PORTD           equ	8	;# 
   217     0009                     PORTE           equ	9	;# 
   218     000A                     PCLATH          equ	10	;# 
   219     000B                     INTCON          equ	11	;# 
   220     000C                     PIR1            equ	12	;# 
   221     000D                     PIR2            equ	13	;# 
   222     000E                     TMR1            equ	14	;# 
   223     000E                     TMR1L           equ	14	;# 
   224     000F                     TMR1H           equ	15	;# 
   225     0010                     T1CON           equ	16	;# 
   226     0011                     TMR2            equ	17	;# 
   227     0012                     T2CON           equ	18	;# 
   228     0013                     SSPBUF          equ	19	;# 
   229     0014                     SSPCON          equ	20	;# 
   230     0015                     CCPR1           equ	21	;# 
   231     0015                     CCPR1L          equ	21	;# 
   232     0016                     CCPR1H          equ	22	;# 
   233     0017                     CCP1CON         equ	23	;# 
   234     0018                     RCSTA           equ	24	;# 
   235     0019                     TXREG           equ	25	;# 
   236     001A                     RCREG           equ	26	;# 
   237     001B                     CCPR2           equ	27	;# 
   238     001B                     CCPR2L          equ	27	;# 
   239     001C                     CCPR2H          equ	28	;# 
   240     001D                     CCP2CON         equ	29	;# 
   241     001E                     ADRESH          equ	30	;# 
   242     001F                     ADCON0          equ	31	;# 
   243     0081                     OPTION_REG      equ	129	;# 
   244     0085                     TRISA           equ	133	;# 
   245     0086                     TRISB           equ	134	;# 
   246     0087                     TRISC           equ	135	;# 
   247     0088                     TRISD           equ	136	;# 
   248     0089                     TRISE           equ	137	;# 
   249     008C                     PIE1            equ	140	;# 
   250     008D                     PIE2            equ	141	;# 
   251     008E                     PCON            equ	142	;# 
   252     0091                     SSPCON2         equ	145	;# 
   253     0092                     PR2             equ	146	;# 
   254     0093                     SSPADD          equ	147	;# 
   255     0094                     SSPSTAT         equ	148	;# 
   256     0098                     TXSTA           equ	152	;# 
   257     0099                     SPBRG           equ	153	;# 
   258     009C                     CMCON           equ	156	;# 
   259     009D                     CVRCON          equ	157	;# 
   260     009E                     ADRESL          equ	158	;# 
   261     009F                     ADCON1          equ	159	;# 
   262     010C                     EEDATA          equ	268	;# 
   263     010D                     EEADR           equ	269	;# 
   264     010E                     EEDATH          equ	270	;# 
   265     010F                     EEADRH          equ	271	;# 
   266     018C                     EECON1          equ	396	;# 
   267     018D                     EECON2          equ	397	;# 
   268     0000                     INDF            equ	0	;# 
   269     0001                     TMR0            equ	1	;# 
   270     0002                     PCL             equ	2	;# 
   271     0003                     STATUS          equ	3	;# 
   272     0004                     FSR             equ	4	;# 
   273     0005                     PORTA           equ	5	;# 
   274     0006                     PORTB           equ	6	;# 
   275     0007                     PORTC           equ	7	;# 
   276     0008                     PORTD           equ	8	;# 
   277     0009                     PORTE           equ	9	;# 
   278     000A                     PCLATH          equ	10	;# 
   279     000B                     INTCON          equ	11	;# 
   280     000C                     PIR1            equ	12	;# 
   281     000D                     PIR2            equ	13	;# 
   282     000E                     TMR1            equ	14	;# 
   283     000E                     TMR1L           equ	14	;# 
   284     000F                     TMR1H           equ	15	;# 
   285     0010                     T1CON           equ	16	;# 
   286     0011                     TMR2            equ	17	;# 
   287     0012                     T2CON           equ	18	;# 
   288     0013                     SSPBUF          equ	19	;# 
   289     0014                     SSPCON          equ	20	;# 
   290     0015                     CCPR1           equ	21	;# 
   291     0015                     CCPR1L          equ	21	;# 
   292     0016                     CCPR1H          equ	22	;# 
   293     0017                     CCP1CON         equ	23	;# 
   294     0018                     RCSTA           equ	24	;# 
   295     0019                     TXREG           equ	25	;# 
   296     001A                     RCREG           equ	26	;# 
   297     001B                     CCPR2           equ	27	;# 
   298     001B                     CCPR2L          equ	27	;# 
   299     001C                     CCPR2H          equ	28	;# 
   300     001D                     CCP2CON         equ	29	;# 
   301     001E                     ADRESH          equ	30	;# 
   302     001F                     ADCON0          equ	31	;# 
   303     0081                     OPTION_REG      equ	129	;# 
   304     0085                     TRISA           equ	133	;# 
   305     0086                     TRISB           equ	134	;# 
   306     0087                     TRISC           equ	135	;# 
   307     0088                     TRISD           equ	136	;# 
   308     0089                     TRISE           equ	137	;# 
   309     008C                     PIE1            equ	140	;# 
   310     008D                     PIE2            equ	141	;# 
   311     008E                     PCON            equ	142	;# 
   312     0091                     SSPCON2         equ	145	;# 
   313     0092                     PR2             equ	146	;# 
   314     0093                     SSPADD          equ	147	;# 
   315     0094                     SSPSTAT         equ	148	;# 
   316     0098                     TXSTA           equ	152	;# 
   317     0099                     SPBRG           equ	153	;# 
   318     009C                     CMCON           equ	156	;# 
   319     009D                     CVRCON          equ	157	;# 
   320     009E                     ADRESL          equ	158	;# 
   321     009F                     ADCON1          equ	159	;# 
   322     010C                     EEDATA          equ	268	;# 
   323     010D                     EEADR           equ	269	;# 
   324     010E                     EEDATH          equ	270	;# 
   325     010F                     EEADRH          equ	271	;# 
   326     018C                     EECON1          equ	396	;# 
   327     018D                     EECON2          equ	397	;# 
   328     0000                     INDF            equ	0	;# 
   329     0001                     TMR0            equ	1	;# 
   330     0002                     PCL             equ	2	;# 
   331     0003                     STATUS          equ	3	;# 
   332     0004                     FSR             equ	4	;# 
   333     0005                     PORTA           equ	5	;# 
   334     0006                     PORTB           equ	6	;# 
   335     0007                     PORTC           equ	7	;# 
   336     0008                     PORTD           equ	8	;# 
   337     0009                     PORTE           equ	9	;# 
   338     000A                     PCLATH          equ	10	;# 
   339     000B                     INTCON          equ	11	;# 
   340     000C                     PIR1            equ	12	;# 
   341     000D                     PIR2            equ	13	;# 
   342     000E                     TMR1            equ	14	;# 
   343     000E                     TMR1L           equ	14	;# 
   344     000F                     TMR1H           equ	15	;# 
   345     0010                     T1CON           equ	16	;# 
   346     0011                     TMR2            equ	17	;# 
   347     0012                     T2CON           equ	18	;# 
   348     0013                     SSPBUF          equ	19	;# 
   349     0014                     SSPCON          equ	20	;# 
   350     0015                     CCPR1           equ	21	;# 
   351     0015                     CCPR1L          equ	21	;# 
   352     0016                     CCPR1H          equ	22	;# 
   353     0017                     CCP1CON         equ	23	;# 
   354     0018                     RCSTA           equ	24	;# 
   355     0019                     TXREG           equ	25	;# 
   356     001A                     RCREG           equ	26	;# 
   357     001B                     CCPR2           equ	27	;# 
   358     001B                     CCPR2L          equ	27	;# 
   359     001C                     CCPR2H          equ	28	;# 
   360     001D                     CCP2CON         equ	29	;# 
   361     001E                     ADRESH          equ	30	;# 
   362     001F                     ADCON0          equ	31	;# 
   363     0081                     OPTION_REG      equ	129	;# 
   364     0085                     TRISA           equ	133	;# 
   365     0086                     TRISB           equ	134	;# 
   366     0087                     TRISC           equ	135	;# 
   367     0088                     TRISD           equ	136	;# 
   368     0089                     TRISE           equ	137	;# 
   369     008C                     PIE1            equ	140	;# 
   370     008D                     PIE2            equ	141	;# 
   371     008E                     PCON            equ	142	;# 
   372     0091                     SSPCON2         equ	145	;# 
   373     0092                     PR2             equ	146	;# 
   374     0093                     SSPADD          equ	147	;# 
   375     0094                     SSPSTAT         equ	148	;# 
   376     0098                     TXSTA           equ	152	;# 
   377     0099                     SPBRG           equ	153	;# 
   378     009C                     CMCON           equ	156	;# 
   379     009D                     CVRCON          equ	157	;# 
   380     009E                     ADRESL          equ	158	;# 
   381     009F                     ADCON1          equ	159	;# 
   382     010C                     EEDATA          equ	268	;# 
   383     010D                     EEADR           equ	269	;# 
   384     010E                     EEDATH          equ	270	;# 
   385     010F                     EEADRH          equ	271	;# 
   386     018C                     EECON1          equ	396	;# 
   387     018D                     EECON2          equ	397	;# 
   388     0019                     _TXREG          set	25
   389     000B                     _INTCONbits     set	11
   390     001A                     _RCREG          set	26
   391     0018                     _RCSTAbits      set	24
   392     000C                     _PIR1bits       set	12
   393     0008                     _PORTDbits      set	8
   394     0006                     _PORTBbits      set	6
   395     0099                     _SPBRG          set	153
   396     0098                     _TXSTAbits      set	152
   397     0087                     _TRISCbits      set	135
   398     008C                     _PIE1bits       set	140
   399     0088                     _TRISDbits      set	136
   400     0086                     _TRISBbits      set	134
   401     009C                     _CMCON          set	156
   402     009F                     _ADCON1         set	159
   403                           
   404                           	psect	strings
   405     0800                     __pstrings:
   406     0800                     stringtab:
   407     0800                     __stringtab:
   408     0800                     stringcode:	
   409                           ;	String table - string pointers are 1 byte each
   410                           
   411     0800                     stringdir:
   412     0800  3008               	movlw	high stringdir
   413     0801  008A               	movwf	10
   414     0802  0804               	movf	4,w
   415     0803  0A84               	incf	4,f
   416     0804  0782               	addwf	2,f
   417     0805                     __stringbase:
   418     0805  3400               	retlw	0
   419     0806                     __end_of__stringtab:
   420     0806                     STR_4:
   421     0806  3445               	retlw	69	;'E'
   422     0807  3453               	retlw	83	;'S'
   423     0808  3451               	retlw	81	;'Q'
   424     0809  3455               	retlw	85	;'U'
   425     080A  3445               	retlw	69	;'E'
   426     080B  3452               	retlw	82	;'R'
   427     080C  3444               	retlw	68	;'D'
   428     080D  3441               	retlw	65	;'A'
   429     080E  3400               	retlw	0
   430     080F                     STR_3:
   431     080F  3444               	retlw	68	;'D'
   432     0810  3449               	retlw	73	;'I'
   433     0811  3452               	retlw	82	;'R'
   434     0812  3445               	retlw	69	;'E'
   435     0813  3449               	retlw	73	;'I'
   436     0814  3454               	retlw	84	;'T'
   437     0815  3441               	retlw	65	;'A'
   438     0816  3400               	retlw	0
   439     0817                     STR_1:
   440     0817  3446               	retlw	70	;'F'
   441     0818  3452               	retlw	82	;'R'
   442     0819  3445               	retlw	69	;'E'
   443     081A  344E               	retlw	78	;'N'
   444     081B  3454               	retlw	84	;'T'
   445     081C  3445               	retlw	69	;'E'
   446     081D  3400               	retlw	0
   447     081E                     STR_5:
   448     081E  3450               	retlw	80	;'P'
   449     081F  3441               	retlw	65	;'A'
   450     0820  3452               	retlw	82	;'R'
   451     0821  3441               	retlw	65	;'A'
   452     0822  3452               	retlw	82	;'R'
   453     0823  3400               	retlw	0
   454     0824                     STR_6:
   455     0824  3441               	retlw	65	;'A'
   456     0825  3443               	retlw	67	;'C'
   457     0826  344B               	retlw	75	;'K'
   458     0827  340A               	retlw	10
   459     0828  3400               	retlw	0
   460     0829                     STR_2:
   461     0829  3452               	retlw	82	;'R'
   462     082A  3445               	retlw	69	;'E'
   463     082B  3400               	retlw	0
   464                           
   465                           	psect	cinit
   466     0011                     start_initialization:	
   467                           ; #config settings
   468                           
   469     0011                     __initialization:
   470                           
   471                           ; Clear objects allocated to COMMON
   472     0011  01F8               	clrf	__pbssCOMMON& (0+127)
   473     0012  01F9               	clrf	(__pbssCOMMON+1)& (0+127)
   474                           
   475                           ; Clear objects allocated to BANK1
   476     0013  1383               	bcf	3,7	;select IRP bank0
   477     0014  30A0               	movlw	low __pbssBANK1
   478     0015  0084               	movwf	4
   479     0016  30C0               	movlw	low (__pbssBANK1+32)
   480     0017  120A  158A  2329  120A  118A  	fcall	clear_ram0
   481     001C                     end_of_initialization:	
   482                           ;End of C runtime variable initialization code
   483                           
   484     001C                     __end_of__initialization:
   485     001C  0183               	clrf	3
   486     001D  120A  158A  2D91   	ljmp	_main	;jump to C main() function
   487                           
   488                           	psect	bssCOMMON
   489     0078                     __pbssCOMMON:
   490     0078                     _flag_comando_disponivel:
   491     0078                     	ds	1
   492     0079                     _indice_buffer_rx_usart:
   493     0079                     	ds	1
   494                           
   495                           	psect	bssBANK1
   496     00A0                     __pbssBANK1:
   497     00A0                     _buffer_rx_usart:
   498     00A0                     	ds	32
   499                           
   500                           	psect	clrtext
   501     0B29                     clear_ram0:	
   502                           ;	Called with FSR containing the base address, and
   503                           ;	W with the last address+1
   504                           
   505     0B29  0064               	clrwdt	;clear the watchdog before getting into this loop
   506     0B2A                     clrloop0:
   507     0B2A  0180               	clrf	0	;clear RAM location pointed to by FSR
   508     0B2B  0A84               	incf	4,f	;increment pointer
   509     0B2C  0604               	xorwf	4,w	;XOR with final address
   510     0B2D  1903               	btfsc	3,2	;have we reached the end yet?
   511     0B2E  3400               	retlw	0	;all done for this memory range, return
   512     0B2F  0604               	xorwf	4,w	;XOR again to restore value
   513     0B30  2B2A               	goto	clrloop0	;do the next byte
   514                           
   515                           	psect	cstackBANK3
   516     0190                     __pcstackBANK3:
   517     0190                     main@comando_recebido:
   518                           
   519                           ; 32 bytes @ 0x0
   520     0190                     	ds	32
   521                           
   522                           	psect	cstackBANK1
   523     00C0                     __pcstackBANK1:
   524     00C0                     ___fladd@signs:
   525                           
   526                           ; 1 bytes @ 0x0
   527     00C0                     	ds	1
   528     00C1                     ___fladd@aexp:
   529                           
   530                           ; 1 bytes @ 0x1
   531     00C1                     	ds	1
   532     00C2                     ___fladd@bexp:
   533                           
   534                           ; 1 bytes @ 0x2
   535     00C2                     	ds	1
   536     00C3                     ___fladd@grs:
   537                           
   538                           ; 1 bytes @ 0x3
   539     00C3                     	ds	1
   540     00C4                     ?___fltol:
   541     00C4                     ___fltol@f1:	
   542                           ; 4 bytes @ 0x4
   543                           
   544                           
   545                           ; 4 bytes @ 0x4
   546     00C4                     	ds	4
   547     00C8                     ??___fltol:
   548                           
   549                           ; 1 bytes @ 0x8
   550     00C8                     	ds	4
   551     00CC                     ?_comunicar_esp32_inicializar_usart:
   552     00CC                     comunicar_esp32_inicializar_usart@baud_rate:	
   553                           ; 1 bytes @ 0xC
   554                           
   555                           
   556                           ; 4 bytes @ 0xC
   557     00CC                     	ds	4
   558     00D0                     comunicar_esp32_inicializar_usart@spbrg_valor_calc:
   559                           
   560                           ; 2 bytes @ 0x10
   561     00D0                     	ds	2
   562                           
   563                           	psect	cstackCOMMON
   564     0070                     __pcstackCOMMON:
   565     0070                     ?_inicializar_motor:
   566     0070                     ?_feedback_inicializar:	
   567                           ; 1 bytes @ 0x0
   568                           
   569     0070                     ?_feedback_indicar_sistema_pronto:	
   570                           ; 1 bytes @ 0x0
   571                           
   572     0070                     ?_comunicar_esp32_comando_recebido_disponivel:	
   573                           ; 1 bytes @ 0x0
   574                           
   575     0070                     ?_feedback_indicar_comunicacao_uart:	
   576                           ; 1 bytes @ 0x0
   577                           
   578     0070                     ?_motores_frente:	
   579                           ; 1 bytes @ 0x0
   580                           
   581     0070                     ?_feedback_indicar_movimento_andamento:	
   582                           ; 1 bytes @ 0x0
   583                           
   584     0070                     ?_motores_re:	
   585                           ; 1 bytes @ 0x0
   586                           
   587     0070                     ?_motores_virar_direita:	
   588                           ; 1 bytes @ 0x0
   589                           
   590     0070                     ?_motores_virar_esquerda:	
   591                           ; 1 bytes @ 0x0
   592                           
   593     0070                     ?_motores_parar_freio:	
   594                           ; 1 bytes @ 0x0
   595                           
   596     0070                     ?_inicializar_sistema:	
   597                           ; 1 bytes @ 0x0
   598                           
   599     0070                     ?_main:	
   600                           ; 1 bytes @ 0x0
   601                           
   602     0070                     ?_feedback_led_rgb_definir_cor:	
   603                           ; 1 bytes @ 0x0
   604                           
   605     0070                     ?_feedback_buzzer_parar:	
   606                           ; 1 bytes @ 0x0
   607                           
   608     0070                     ?_usart_isr:	
   609                           ; 1 bytes @ 0x0
   610                           
   611     0070                     ?_comunicar_esp32_enviar_byte:	
   612                           ; 1 bytes @ 0x0
   613                           
   614     0070                     ??_usart_isr:	
   615                           ; 1 bytes @ 0x0
   616                           
   617                           
   618                           ; 1 bytes @ 0x0
   619     0070                     	ds	3
   620     0073                     usart_isr@byte_recebido:
   621                           
   622                           ; 1 bytes @ 0x3
   623     0073                     	ds	1
   624     0074                     ?_comunicar_esp32_ler_comando_recebido:
   625     0074                     ?_delay_ms_variavel:	
   626                           ; 1 bytes @ 0x4
   627                           
   628     0074                     ?_strcmp:	
   629                           ; 1 bytes @ 0x4
   630                           
   631     0074                     ?__Umul8_16:	
   632                           ; 2 bytes @ 0x4
   633                           
   634     0074                     ?___xxtofl:	
   635                           ; 2 bytes @ 0x4
   636                           
   637     0074                     comunicar_esp32_enviar_byte@dado:	
   638                           ; 4 bytes @ 0x4
   639                           
   640     0074                     comunicar_esp32_ler_comando_recebido@buffer_destino:	
   641                           ; 1 bytes @ 0x4
   642                           
   643     0074                     __Umul8_16@multiplicand:	
   644                           ; 1 bytes @ 0x4
   645                           
   646     0074                     strcmp@l:	
   647                           ; 1 bytes @ 0x4
   648                           
   649     0074                     delay_ms_variavel@milissegundos:	
   650                           ; 1 bytes @ 0x4
   651                           
   652     0074                     ___xxtofl@val:	
   653                           ; 2 bytes @ 0x4
   654                           
   655     0074                     ??_inicializar_motor:	
   656                           ; 4 bytes @ 0x4
   657                           
   658     0074                     ??_feedback_inicializar:	
   659                           ; 1 bytes @ 0x4
   660                           
   661     0074                     ??_comunicar_esp32_comando_recebido_disponivel:	
   662                           ; 1 bytes @ 0x4
   663                           
   664     0074                     ??_motores_frente:	
   665                           ; 1 bytes @ 0x4
   666                           
   667     0074                     ??_motores_re:	
   668                           ; 1 bytes @ 0x4
   669                           
   670     0074                     ??_motores_virar_direita:	
   671                           ; 1 bytes @ 0x4
   672                           
   673     0074                     ??_motores_virar_esquerda:	
   674                           ; 1 bytes @ 0x4
   675                           
   676     0074                     ??_motores_parar_freio:	
   677                           ; 1 bytes @ 0x4
   678                           
   679     0074                     ??_feedback_led_rgb_definir_cor:	
   680                           ; 1 bytes @ 0x4
   681                           
   682     0074                     ??_feedback_buzzer_parar:	
   683                           ; 1 bytes @ 0x4
   684                           
   685     0074                     ??_comunicar_esp32_enviar_byte:	
   686                           ; 1 bytes @ 0x4
   687                           
   688                           
   689                           ; 1 bytes @ 0x4
   690     0074                     	ds	1
   691     0075                     ?_comunicar_esp32_enviar_string:
   692     0075                     comunicar_esp32_enviar_string@str:	
   693                           ; 1 bytes @ 0x5
   694                           
   695     0075                     comunicar_esp32_ler_comando_recebido@tamanho_max_buffer:	
   696                           ; 1 bytes @ 0x5
   697                           
   698     0075                     strcmp@r:	
   699                           ; 1 bytes @ 0x5
   700                           
   701                           
   702                           ; 1 bytes @ 0x5
   703     0075                     	ds	1
   704     0076                     feedback_led_rgb_definir_cor@cor:
   705     0076                     ??_comunicar_esp32_ler_comando_recebido:	
   706                           ; 1 bytes @ 0x6
   707                           
   708     0076                     ??_strcmp:	
   709                           ; 1 bytes @ 0x6
   710                           
   711     0076                     ??_comunicar_esp32_enviar_string:	
   712                           ; 1 bytes @ 0x6
   713                           
   714     0076                     ??__Umul8_16:	
   715                           ; 1 bytes @ 0x6
   716                           
   717     0076                     ??_delay_ms_variavel:	
   718                           ; 1 bytes @ 0x6
   719                           
   720                           
   721                           ; 1 bytes @ 0x6
   722     0076                     	ds	1
   723     0077                     ??_feedback_indicar_sistema_pronto:
   724     0077                     ??_feedback_indicar_comunicacao_uart:	
   725                           ; 1 bytes @ 0x7
   726                           
   727     0077                     ??_feedback_indicar_movimento_andamento:	
   728                           ; 1 bytes @ 0x7
   729                           
   730                           
   731                           ; 1 bytes @ 0x7
   732     0077                     	ds	1
   733     0078                     ??_comunicar_esp32_inicializar_usart:
   734     0078                     ??_inicializar_sistema:	
   735                           ; 1 bytes @ 0x8
   736                           
   737     0078                     ??_main:	
   738                           ; 1 bytes @ 0x8
   739                           
   740                           
   741                           	psect	cstackBANK0
   742     0020                     __pcstackBANK0:	
   743                           ; 1 bytes @ 0x8
   744                           
   745     0020                     ?_feedback_buzzer_controlar:
   746     0020                     comunicar_esp32_ler_comando_recebido@tamanho_comando:	
   747                           ; 1 bytes @ 0x0
   748                           
   749     0020                     feedback_buzzer_controlar@duracao_ms_on:	
   750                           ; 1 bytes @ 0x0
   751                           
   752     0020                     __Umul8_16@product:	
   753                           ; 2 bytes @ 0x0
   754                           
   755     0020                     ??___xxtofl:	
   756                           ; 2 bytes @ 0x0
   757                           
   758                           
   759                           ; 1 bytes @ 0x0
   760     0020                     	ds	1
   761     0021                     comunicar_esp32_ler_comando_recebido@i:
   762                           
   763                           ; 1 bytes @ 0x1
   764     0021                     	ds	1
   765     0022                     feedback_buzzer_controlar@duracao_ms_off:
   766     0022                     __Umul8_16@word_mpld:	
   767                           ; 2 bytes @ 0x2
   768                           
   769                           
   770                           ; 2 bytes @ 0x2
   771     0022                     	ds	2
   772     0024                     feedback_buzzer_controlar@repeticoes:
   773     0024                     __Umul8_16@multiplier:	
   774                           ; 1 bytes @ 0x4
   775                           
   776     0024                     ___xxtofl@sign:	
   777                           ; 1 bytes @ 0x4
   778                           
   779                           
   780                           ; 1 bytes @ 0x4
   781     0024                     	ds	1
   782     0025                     ___xxtofl@exp:
   783     0025                     ??_feedback_buzzer_controlar:	
   784                           ; 1 bytes @ 0x5
   785                           
   786                           
   787                           ; 1 bytes @ 0x5
   788     0025                     	ds	1
   789     0026                     ___xxtofl@arg:
   790                           
   791                           ; 4 bytes @ 0x6
   792     0026                     	ds	1
   793     0027                     feedback_buzzer_controlar@off_duration:
   794                           
   795                           ; 2 bytes @ 0x7
   796     0027                     	ds	2
   797     0029                     feedback_buzzer_controlar@padrao:
   798                           
   799                           ; 1 bytes @ 0x9
   800     0029                     	ds	1
   801     002A                     ?___flmul:
   802     002A                     ___flmul@b:	
   803                           ; 4 bytes @ 0xA
   804                           
   805                           
   806                           ; 4 bytes @ 0xA
   807     002A                     	ds	4
   808     002E                     ___flmul@a:
   809                           
   810                           ; 4 bytes @ 0xE
   811     002E                     	ds	4
   812     0032                     ??___flmul:
   813                           
   814                           ; 1 bytes @ 0x12
   815     0032                     	ds	5
   816     0037                     ___flmul@sign:
   817                           
   818                           ; 1 bytes @ 0x17
   819     0037                     	ds	1
   820     0038                     ___flmul@aexp:
   821                           
   822                           ; 1 bytes @ 0x18
   823     0038                     	ds	1
   824     0039                     ___flmul@grs:
   825                           
   826                           ; 4 bytes @ 0x19
   827     0039                     	ds	4
   828     003D                     ___flmul@bexp:
   829                           
   830                           ; 1 bytes @ 0x1D
   831     003D                     	ds	1
   832     003E                     ___flmul@prod:
   833                           
   834                           ; 4 bytes @ 0x1E
   835     003E                     	ds	4
   836     0042                     ___flmul@temp:
   837                           
   838                           ; 2 bytes @ 0x22
   839     0042                     	ds	2
   840     0044                     ?___fldiv:
   841     0044                     ___fldiv@a:	
   842                           ; 4 bytes @ 0x24
   843                           
   844                           
   845                           ; 4 bytes @ 0x24
   846     0044                     	ds	4
   847     0048                     ___fldiv@b:
   848                           
   849                           ; 4 bytes @ 0x28
   850     0048                     	ds	4
   851     004C                     ??___fldiv:
   852                           
   853                           ; 1 bytes @ 0x2C
   854     004C                     	ds	5
   855     0051                     ___fldiv@rem:
   856                           
   857                           ; 4 bytes @ 0x31
   858     0051                     	ds	4
   859     0055                     ___fldiv@sign:
   860                           
   861                           ; 1 bytes @ 0x35
   862     0055                     	ds	1
   863     0056                     ___fldiv@new_exp:
   864                           
   865                           ; 2 bytes @ 0x36
   866     0056                     	ds	2
   867     0058                     ___fldiv@grs:
   868                           
   869                           ; 4 bytes @ 0x38
   870     0058                     	ds	4
   871     005C                     ___fldiv@bexp:
   872                           
   873                           ; 1 bytes @ 0x3C
   874     005C                     	ds	1
   875     005D                     ___fldiv@aexp:
   876                           
   877                           ; 1 bytes @ 0x3D
   878     005D                     	ds	1
   879     005E                     ?___fladd:
   880     005E                     ___fladd@b:	
   881                           ; 4 bytes @ 0x3E
   882                           
   883                           
   884                           ; 4 bytes @ 0x3E
   885     005E                     	ds	4
   886     0062                     ___fladd@a:
   887                           
   888                           ; 4 bytes @ 0x42
   889     0062                     	ds	4
   890     0066                     ??___fladd:
   891                           
   892                           ; 1 bytes @ 0x46
   893     0066                     	ds	8
   894     006E                     ___fltol@sign1:
   895                           
   896                           ; 1 bytes @ 0x4E
   897     006E                     	ds	1
   898     006F                     ___fltol@exp1:
   899                           
   900                           ; 1 bytes @ 0x4F
   901     006F                     	ds	1
   902                           
   903                           	psect	maintext
   904     0D91                     __pmaintext:	
   905 ;;
   906 ;;Main: autosize = 0, tempsize = 0, incstack = 0, save=0
   907 ;;
   908 ;; *************** function _main *****************
   909 ;; Defined at:
   910 ;;		line 29 in file "main.c"
   911 ;; Parameters:    Size  Location     Type
   912 ;;		None
   913 ;; Auto vars:     Size  Location     Type
   914 ;;  comando_rece   32    0[BANK3 ] unsigned char [32]
   915 ;; Return value:  Size  Location     Type
   916 ;;                  1    wreg      void 
   917 ;; Registers used:
   918 ;;		wreg, fsr0l, fsr0h, status,2, status,0, btemp+1, pclath, cstack
   919 ;; Tracked objects:
   920 ;;		On entry : B00/0
   921 ;;		On exit  : 0/0
   922 ;;		Unchanged: 0/0
   923 ;; Data sizes:     COMMON   BANK0   BANK1   BANK3   BANK2
   924 ;;      Params:         0       0       0       0       0
   925 ;;      Locals:         0       0       0      32       0
   926 ;;      Temps:          0       0       0       0       0
   927 ;;      Totals:         0       0       0      32       0
   928 ;;Total ram usage:       32 bytes
   929 ;; Hardware stack levels required when called: 5
   930 ;; This function calls:
   931 ;;		_comunicar_esp32_comando_recebido_disponivel
   932 ;;		_comunicar_esp32_enviar_string
   933 ;;		_comunicar_esp32_ler_comando_recebido
   934 ;;		_feedback_indicar_comunicacao_uart
   935 ;;		_feedback_indicar_movimento_andamento
   936 ;;		_feedback_indicar_sistema_pronto
   937 ;;		_inicializar_sistema
   938 ;;		_motores_frente
   939 ;;		_motores_parar_freio
   940 ;;		_motores_re
   941 ;;		_motores_virar_direita
   942 ;;		_motores_virar_esquerda
   943 ;;		_strcmp
   944 ;; This function is called by:
   945 ;;		Startup code after reset
   946 ;; This function uses a non-reentrant model
   947 ;;
   948                           
   949     0D91                     _main:	
   950                           ;psect for function _main
   951                           
   952     0D91                     l3277:	
   953                           ;incstack = 0
   954                           ; Regs used in _main: [wreg-fsr0h+status,2+status,0+btemp+1+pclath+cstack]
   955                           
   956                           
   957                           ;main.c: 30:     inicializar_sistema();
   958     0D91  120A  158A  23BF  120A  158A  	fcall	_inicializar_sistema
   959     0D96                     l3279:
   960                           
   961                           ;main.c: 32:     feedback_indicar_sistema_pronto();
   962     0D96  120A  158A  238D  120A  158A  	fcall	_feedback_indicar_sistema_pronto
   963     0D9B                     l3281:
   964                           
   965                           ;main.c: 37:         if (comunicar_esp32_comando_recebido_disponivel()) {
   966     0D9B  120A  158A  2300  120A  158A  	fcall	_comunicar_esp32_comando_recebido_disponivel
   967     0DA0  3A00               	xorlw	0
   968     0DA1  1903               	skipnz
   969     0DA2  2DA4               	goto	u4841
   970     0DA3  2DA5               	goto	u4840
   971     0DA4                     u4841:
   972     0DA4  2D9B               	goto	l3281
   973     0DA5                     u4840:
   974     0DA5                     l3283:
   975                           
   976                           ;main.c: 39:             feedback_indicar_comunicacao_uart();
   977     0DA5  120A  158A  2377  120A  158A  	fcall	_feedback_indicar_comunicacao_uart
   978     0DAA                     l3285:
   979                           
   980                           ;main.c: 41:             if (comunicar_esp32_ler_comando_recebido(comando_recebido, size
      +                          of(comando_recebido))) {
   981     0DAA  3090               	movlw	(low (main@comando_recebido| (0+256)))& (0+255)
   982     0DAB  00F4               	movwf	comunicar_esp32_ler_comando_recebido@buffer_destino
   983     0DAC  3020               	movlw	32
   984     0DAD  00F5               	movwf	comunicar_esp32_ler_comando_recebido@tamanho_max_buffer
   985     0DAE  120A  118A  27C6  120A  158A  	fcall	_comunicar_esp32_ler_comando_recebido
   986     0DB3  3A00               	xorlw	0
   987     0DB4  1903               	skipnz
   988     0DB5  2DB7               	goto	u4851
   989     0DB6  2DB8               	goto	u4850
   990     0DB7                     u4851:
   991     0DB7  2D9B               	goto	l3281
   992     0DB8                     u4850:
   993     0DB8                     l3287:
   994                           
   995                           ;main.c: 43:                 if (strcmp(comando_recebido, "FRENTE") == 0) {
   996     0DB8  3090               	movlw	(low (main@comando_recebido| (0+256)))& (0+255)
   997     0DB9  00F4               	movwf	strcmp@l
   998     0DBA  3012               	movlw	(low ((STR_1-__stringbase)| (0+32768)))& (0+255)
   999     0DBB  00F5               	movwf	strcmp@r
  1000     0DBC  120A  158A  2408  120A  158A  	fcall	_strcmp
  1001     0DC1  0874               	movf	?_strcmp,w
  1002     0DC2  0475               	iorwf	?_strcmp+1,w
  1003     0DC3  1D03               	btfss	3,2
  1004     0DC4  2DC6               	goto	u4861
  1005     0DC5  2DC7               	goto	u4860
  1006     0DC6                     u4861:
  1007     0DC6  2DD2               	goto	l3293
  1008     0DC7                     u4860:
  1009     0DC7                     l3289:
  1010                           
  1011                           ;main.c: 44:                     motores_frente();
  1012     0DC7  120A  158A  230D  120A  158A  	fcall	_motores_frente
  1013     0DCC                     l3291:
  1014                           
  1015                           ;main.c: 45:                     feedback_indicar_movimento_andamento();
  1016     0DCC  120A  158A  233D  120A  158A  	fcall	_feedback_indicar_movimento_andamento
  1017                           
  1018                           ;main.c: 46:                 }
  1019     0DD1  2E2B               	goto	l3317
  1020     0DD2                     l3293:
  1021     0DD2  3090               	movlw	(low (main@comando_recebido| (0+256)))& (0+255)
  1022     0DD3  00F4               	movwf	strcmp@l
  1023     0DD4  3024               	movlw	(low ((STR_2-__stringbase)| (0+32768)))& (0+255)
  1024     0DD5  00F5               	movwf	strcmp@r
  1025     0DD6  120A  158A  2408  120A  158A  	fcall	_strcmp
  1026     0DDB  0874               	movf	?_strcmp,w
  1027     0DDC  0475               	iorwf	?_strcmp+1,w
  1028     0DDD  1D03               	btfss	3,2
  1029     0DDE  2DE0               	goto	u4871
  1030     0DDF  2DE1               	goto	u4870
  1031     0DE0                     u4871:
  1032     0DE0  2DE7               	goto	l3299
  1033     0DE1                     u4870:
  1034     0DE1                     l3295:
  1035                           
  1036                           ;main.c: 48:                     motores_re();
  1037     0DE1  120A  158A  2314  120A  158A  	fcall	_motores_re
  1038     0DE6  2DCC               	goto	l3291
  1039     0DE7                     l3299:
  1040     0DE7  3090               	movlw	(low (main@comando_recebido| (0+256)))& (0+255)
  1041     0DE8  00F4               	movwf	strcmp@l
  1042     0DE9  300A               	movlw	(low ((STR_3-__stringbase)| (0+32768)))& (0+255)
  1043     0DEA  00F5               	movwf	strcmp@r
  1044     0DEB  120A  158A  2408  120A  158A  	fcall	_strcmp
  1045     0DF0  0874               	movf	?_strcmp,w
  1046     0DF1  0475               	iorwf	?_strcmp+1,w
  1047     0DF2  1D03               	btfss	3,2
  1048     0DF3  2DF5               	goto	u4881
  1049     0DF4  2DF6               	goto	u4880
  1050     0DF5                     u4881:
  1051     0DF5  2DFC               	goto	l3305
  1052     0DF6                     u4880:
  1053     0DF6                     l3301:
  1054                           
  1055                           ;main.c: 52:                     motores_virar_direita();
  1056     0DF6  120A  158A  231B  120A  158A  	fcall	_motores_virar_direita
  1057     0DFB  2DCC               	goto	l3291
  1058     0DFC                     l3305:
  1059     0DFC  3090               	movlw	(low (main@comando_recebido| (0+256)))& (0+255)
  1060     0DFD  00F4               	movwf	strcmp@l
  1061     0DFE  3001               	movlw	(low ((STR_4-__stringbase)| (0+32768)))& (0+255)
  1062     0DFF  00F5               	movwf	strcmp@r
  1063     0E00  120A  158A  2408  120A  158A  	fcall	_strcmp
  1064     0E05  0874               	movf	?_strcmp,w
  1065     0E06  0475               	iorwf	?_strcmp+1,w
  1066     0E07  1D03               	btfss	3,2
  1067     0E08  2E0A               	goto	u4891
  1068     0E09  2E0B               	goto	u4890
  1069     0E0A                     u4891:
  1070     0E0A  2E11               	goto	l3311
  1071     0E0B                     u4890:
  1072     0E0B                     l3307:
  1073                           
  1074                           ;main.c: 56:                     motores_virar_esquerda();
  1075     0E0B  120A  158A  2322  120A  158A  	fcall	_motores_virar_esquerda
  1076     0E10  2DCC               	goto	l3291
  1077     0E11                     l3311:
  1078     0E11  3090               	movlw	(low (main@comando_recebido| (0+256)))& (0+255)
  1079     0E12  00F4               	movwf	strcmp@l
  1080     0E13  3019               	movlw	(low ((STR_5-__stringbase)| (0+32768)))& (0+255)
  1081     0E14  00F5               	movwf	strcmp@r
  1082     0E15  120A  158A  2408  120A  158A  	fcall	_strcmp
  1083     0E1A  0874               	movf	?_strcmp,w
  1084     0E1B  0475               	iorwf	?_strcmp+1,w
  1085     0E1C  1D03               	btfss	3,2
  1086     0E1D  2E1F               	goto	u4901
  1087     0E1E  2E20               	goto	u4900
  1088     0E1F                     u4901:
  1089     0E1F  2E2B               	goto	l48
  1090     0E20                     u4900:
  1091     0E20                     l3313:
  1092                           
  1093                           ;main.c: 60:                     motores_parar_freio();
  1094     0E20  120A  158A  2306  120A  158A  	fcall	_motores_parar_freio
  1095     0E25                     l3315:
  1096                           
  1097                           ;main.c: 61:                     feedback_indicar_sistema_pronto();
  1098     0E25  120A  158A  238D  120A  158A  	fcall	_feedback_indicar_sistema_pronto
  1099     0E2A  2E2B               	goto	l3317
  1100     0E2B                     l48:
  1101     0E2B                     l3317:
  1102                           
  1103                           ;main.c: 63:                 comunicar_esp32_enviar_string("ACK\n");
  1104     0E2B  301F               	movlw	(low ((STR_6-__stringbase)| (0+32768)))& (0+255)
  1105     0E2C  00F5               	movwf	comunicar_esp32_enviar_string@str
  1106     0E2D  120A  158A  23A3  120A  158A  	fcall	_comunicar_esp32_enviar_string
  1107     0E32  2D9B               	goto	l3281
  1108     0E33  120A  118A  280E   	ljmp	start
  1109     0E36                     __end_of_main:
  1110                           
  1111                           	psect	text1
  1112     0C08                     __ptext1:	
  1113 ;; *************** function _strcmp *****************
  1114 ;; Defined at:
  1115 ;;		line 3 in file "C:\Program Files\Microchip\xc8\v3.00\pic\sources\c99\common\strcmp.c"
  1116 ;; Parameters:    Size  Location     Type
  1117 ;;  l               1    4[COMMON] PTR const unsigned char 
  1118 ;;		 -> main@comando_recebido(32), 
  1119 ;;  r               1    5[COMMON] PTR const unsigned char 
  1120 ;;		 -> STR_5(6), STR_4(9), STR_3(8), STR_2(3), 
  1121 ;;		 -> STR_1(7), 
  1122 ;; Auto vars:     Size  Location     Type
  1123 ;;		None
  1124 ;; Return value:  Size  Location     Type
  1125 ;;                  2    4[COMMON] int 
  1126 ;; Registers used:
  1127 ;;		wreg, fsr0l, fsr0h, status,2, status,0, pclath
  1128 ;; Tracked objects:
  1129 ;;		On entry : 0/0
  1130 ;;		On exit  : 0/0
  1131 ;;		Unchanged: 0/0
  1132 ;; Data sizes:     COMMON   BANK0   BANK1   BANK3   BANK2
  1133 ;;      Params:         2       0       0       0       0
  1134 ;;      Locals:         0       0       0       0       0
  1135 ;;      Temps:          2       0       0       0       0
  1136 ;;      Totals:         4       0       0       0       0
  1137 ;;Total ram usage:        4 bytes
  1138 ;; Hardware stack levels used: 2
  1139 ;; Hardware stack levels required when called: 1
  1140 ;; This function calls:
  1141 ;;		Nothing
  1142 ;; This function is called by:
  1143 ;;		_main
  1144 ;; This function uses a non-reentrant model
  1145 ;;
  1146                           
  1147     0C08                     _strcmp:	
  1148                           ;psect for function _strcmp
  1149                           
  1150     0C08                     l3245:	
  1151                           ;incstack = 0
  1152                           ; Regs used in _strcmp: [wreg-fsr0h+status,2+status,0+pclath]
  1153                           
  1154     0C08  2C0D               	goto	l3249
  1155     0C09                     l3247:
  1156     0C09  3001               	movlw	1
  1157     0C0A  07F4               	addwf	strcmp@l,f
  1158     0C0B  3001               	movlw	1
  1159     0C0C  07F5               	addwf	strcmp@r,f
  1160     0C0D                     l3249:
  1161     0C0D  0875               	movf	strcmp@r,w
  1162     0C0E  0084               	movwf	4
  1163     0C0F  120A  158A  2000  120A  158A  	fcall	stringdir
  1164     0C14  00F6               	movwf	??_strcmp
  1165     0C15  0874               	movf	strcmp@l,w
  1166     0C16  0084               	movwf	4
  1167     0C17  1783               	bsf	3,7	;select IRP bank2
  1168     0C18  0800               	movf	0,w
  1169     0C19  0676               	xorwf	??_strcmp,w
  1170     0C1A  1D03               	skipz
  1171     0C1B  2C1D               	goto	u4811
  1172     0C1C  2C1E               	goto	u4810
  1173     0C1D                     u4811:
  1174     0C1D  2C25               	goto	l3253
  1175     0C1E                     u4810:
  1176     0C1E                     l3251:
  1177     0C1E  0874               	movf	strcmp@l,w
  1178     0C1F  0084               	movwf	4
  1179     0C20  0800               	movf	0,w
  1180     0C21  1D03               	btfss	3,2
  1181     0C22  2C24               	goto	u4821
  1182     0C23  2C25               	goto	u4820
  1183     0C24                     u4821:
  1184     0C24  2C09               	goto	l3247
  1185     0C25                     u4820:
  1186     0C25                     l3253:
  1187     0C25  0875               	movf	strcmp@r,w
  1188     0C26  0084               	movwf	4
  1189     0C27  120A  158A  2000  120A  158A  	fcall	stringdir
  1190     0C2C  00F6               	movwf	??_strcmp
  1191     0C2D  0874               	movf	strcmp@l,w
  1192     0C2E  0084               	movwf	4
  1193     0C2F  0800               	movf	0,w
  1194     0C30  00F7               	movwf	??_strcmp+1
  1195     0C31  0876               	movf	??_strcmp,w
  1196     0C32  0277               	subwf	??_strcmp+1,w
  1197     0C33  00F4               	movwf	?_strcmp
  1198     0C34  01F5               	clrf	?_strcmp+1
  1199     0C35  1C03               	skipc
  1200     0C36  03F5               	decf	?_strcmp+1,f
  1201     0C37                     l777:
  1202     0C37  0008               	return
  1203     0C38                     __end_of_strcmp:
  1204                           
  1205                           	psect	text2
  1206     0B22                     __ptext2:	
  1207 ;; *************** function _motores_virar_esquerda *****************
  1208 ;; Defined at:
  1209 ;;		line 53 in file "controle_motor.c"
  1210 ;; Parameters:    Size  Location     Type
  1211 ;;		None
  1212 ;; Auto vars:     Size  Location     Type
  1213 ;;		None
  1214 ;; Return value:  Size  Location     Type
  1215 ;;                  1    wreg      void 
  1216 ;; Registers used:
  1217 ;;		None
  1218 ;; Tracked objects:
  1219 ;;		On entry : 0/0
  1220 ;;		On exit  : 0/0
  1221 ;;		Unchanged: 0/0
  1222 ;; Data sizes:     COMMON   BANK0   BANK1   BANK3   BANK2
  1223 ;;      Params:         0       0       0       0       0
  1224 ;;      Locals:         0       0       0       0       0
  1225 ;;      Temps:          0       0       0       0       0
  1226 ;;      Totals:         0       0       0       0       0
  1227 ;;Total ram usage:        0 bytes
  1228 ;; Hardware stack levels used: 1
  1229 ;; Hardware stack levels required when called: 1
  1230 ;; This function calls:
  1231 ;;		Nothing
  1232 ;; This function is called by:
  1233 ;;		_main
  1234 ;; This function uses a non-reentrant model
  1235 ;;
  1236                           
  1237     0B22                     _motores_virar_esquerda:	
  1238                           ;psect for function _motores_virar_esquerda
  1239                           
  1240     0B22                     l3267:	
  1241                           ;incstack = 0
  1242                           ; Regs used in _motores_virar_esquerda: []
  1243                           
  1244                           
  1245                           ;controle_motor.c: 54:     PORTBbits.RB1 = 1;
  1246     0B22  1283               	bcf	3,5	;RP0=0, select bank0
  1247     0B23  1303               	bcf	3,6	;RP1=0, select bank0
  1248     0B24  1486               	bsf	6,1	;volatile
  1249                           
  1250                           ;controle_motor.c: 55:     PORTBbits.RB2 = 0;
  1251     0B25  1106               	bcf	6,2	;volatile
  1252                           
  1253                           ;controle_motor.c: 56:     PORTBbits.RB4 = 0;
  1254     0B26  1206               	bcf	6,4	;volatile
  1255                           
  1256                           ;controle_motor.c: 57:     PORTBbits.RB5 = 1;
  1257     0B27  1686               	bsf	6,5	;volatile
  1258     0B28                     l83:
  1259     0B28  0008               	return
  1260     0B29                     __end_of_motores_virar_esquerda:
  1261                           
  1262                           	psect	text3
  1263     0B1B                     __ptext3:	
  1264 ;; *************** function _motores_virar_direita *****************
  1265 ;; Defined at:
  1266 ;;		line 46 in file "controle_motor.c"
  1267 ;; Parameters:    Size  Location     Type
  1268 ;;		None
  1269 ;; Auto vars:     Size  Location     Type
  1270 ;;		None
  1271 ;; Return value:  Size  Location     Type
  1272 ;;                  1    wreg      void 
  1273 ;; Registers used:
  1274 ;;		None
  1275 ;; Tracked objects:
  1276 ;;		On entry : 0/0
  1277 ;;		On exit  : 0/0
  1278 ;;		Unchanged: 0/0
  1279 ;; Data sizes:     COMMON   BANK0   BANK1   BANK3   BANK2
  1280 ;;      Params:         0       0       0       0       0
  1281 ;;      Locals:         0       0       0       0       0
  1282 ;;      Temps:          0       0       0       0       0
  1283 ;;      Totals:         0       0       0       0       0
  1284 ;;Total ram usage:        0 bytes
  1285 ;; Hardware stack levels used: 1
  1286 ;; Hardware stack levels required when called: 1
  1287 ;; This function calls:
  1288 ;;		Nothing
  1289 ;; This function is called by:
  1290 ;;		_main
  1291 ;; This function uses a non-reentrant model
  1292 ;;
  1293                           
  1294     0B1B                     _motores_virar_direita:	
  1295                           ;psect for function _motores_virar_direita
  1296                           
  1297     0B1B                     l3265:	
  1298                           ;incstack = 0
  1299                           ; Regs used in _motores_virar_direita: []
  1300                           
  1301                           
  1302                           ;controle_motor.c: 47:     PORTBbits.RB1 = 0;
  1303     0B1B  1283               	bcf	3,5	;RP0=0, select bank0
  1304     0B1C  1303               	bcf	3,6	;RP1=0, select bank0
  1305     0B1D  1086               	bcf	6,1	;volatile
  1306                           
  1307                           ;controle_motor.c: 48:     PORTBbits.RB2 = 1;
  1308     0B1E  1506               	bsf	6,2	;volatile
  1309                           
  1310                           ;controle_motor.c: 49:     PORTBbits.RB4 = 1;
  1311     0B1F  1606               	bsf	6,4	;volatile
  1312                           
  1313                           ;controle_motor.c: 50:     PORTBbits.RB5 = 0;
  1314     0B20  1286               	bcf	6,5	;volatile
  1315     0B21                     l80:
  1316     0B21  0008               	return
  1317     0B22                     __end_of_motores_virar_direita:
  1318                           
  1319                           	psect	text4
  1320     0B14                     __ptext4:	
  1321 ;; *************** function _motores_re *****************
  1322 ;; Defined at:
  1323 ;;		line 39 in file "controle_motor.c"
  1324 ;; Parameters:    Size  Location     Type
  1325 ;;		None
  1326 ;; Auto vars:     Size  Location     Type
  1327 ;;		None
  1328 ;; Return value:  Size  Location     Type
  1329 ;;                  1    wreg      void 
  1330 ;; Registers used:
  1331 ;;		None
  1332 ;; Tracked objects:
  1333 ;;		On entry : 0/0
  1334 ;;		On exit  : 0/0
  1335 ;;		Unchanged: 0/0
  1336 ;; Data sizes:     COMMON   BANK0   BANK1   BANK3   BANK2
  1337 ;;      Params:         0       0       0       0       0
  1338 ;;      Locals:         0       0       0       0       0
  1339 ;;      Temps:          0       0       0       0       0
  1340 ;;      Totals:         0       0       0       0       0
  1341 ;;Total ram usage:        0 bytes
  1342 ;; Hardware stack levels used: 1
  1343 ;; Hardware stack levels required when called: 1
  1344 ;; This function calls:
  1345 ;;		Nothing
  1346 ;; This function is called by:
  1347 ;;		_main
  1348 ;; This function uses a non-reentrant model
  1349 ;;
  1350                           
  1351     0B14                     _motores_re:	
  1352                           ;psect for function _motores_re
  1353                           
  1354     0B14                     l3263:	
  1355                           ;incstack = 0
  1356                           ; Regs used in _motores_re: []
  1357                           
  1358                           
  1359                           ;controle_motor.c: 40:     PORTBbits.RB1 = 1;
  1360     0B14  1283               	bcf	3,5	;RP0=0, select bank0
  1361     0B15  1303               	bcf	3,6	;RP1=0, select bank0
  1362     0B16  1486               	bsf	6,1	;volatile
  1363                           
  1364                           ;controle_motor.c: 41:     PORTBbits.RB2 = 0;
  1365     0B17  1106               	bcf	6,2	;volatile
  1366                           
  1367                           ;controle_motor.c: 42:     PORTBbits.RB4 = 1;
  1368     0B18  1606               	bsf	6,4	;volatile
  1369                           
  1370                           ;controle_motor.c: 43:     PORTBbits.RB5 = 0;
  1371     0B19  1286               	bcf	6,5	;volatile
  1372     0B1A                     l77:
  1373     0B1A  0008               	return
  1374     0B1B                     __end_of_motores_re:
  1375                           
  1376                           	psect	text5
  1377     0B0D                     __ptext5:	
  1378 ;; *************** function _motores_frente *****************
  1379 ;; Defined at:
  1380 ;;		line 32 in file "controle_motor.c"
  1381 ;; Parameters:    Size  Location     Type
  1382 ;;		None
  1383 ;; Auto vars:     Size  Location     Type
  1384 ;;		None
  1385 ;; Return value:  Size  Location     Type
  1386 ;;                  1    wreg      void 
  1387 ;; Registers used:
  1388 ;;		None
  1389 ;; Tracked objects:
  1390 ;;		On entry : 0/0
  1391 ;;		On exit  : 0/0
  1392 ;;		Unchanged: 0/0
  1393 ;; Data sizes:     COMMON   BANK0   BANK1   BANK3   BANK2
  1394 ;;      Params:         0       0       0       0       0
  1395 ;;      Locals:         0       0       0       0       0
  1396 ;;      Temps:          0       0       0       0       0
  1397 ;;      Totals:         0       0       0       0       0
  1398 ;;Total ram usage:        0 bytes
  1399 ;; Hardware stack levels used: 1
  1400 ;; Hardware stack levels required when called: 1
  1401 ;; This function calls:
  1402 ;;		Nothing
  1403 ;; This function is called by:
  1404 ;;		_main
  1405 ;; This function uses a non-reentrant model
  1406 ;;
  1407                           
  1408     0B0D                     _motores_frente:	
  1409                           ;psect for function _motores_frente
  1410                           
  1411     0B0D                     l3257:	
  1412                           ;incstack = 0
  1413                           ; Regs used in _motores_frente: []
  1414                           
  1415                           
  1416                           ;controle_motor.c: 33:     PORTBbits.RB1 = 0;
  1417     0B0D  1283               	bcf	3,5	;RP0=0, select bank0
  1418     0B0E  1303               	bcf	3,6	;RP1=0, select bank0
  1419     0B0F  1086               	bcf	6,1	;volatile
  1420                           
  1421                           ;controle_motor.c: 34:     PORTBbits.RB2 = 1;
  1422     0B10  1506               	bsf	6,2	;volatile
  1423                           
  1424                           ;controle_motor.c: 35:     PORTBbits.RB4 = 0;
  1425     0B11  1206               	bcf	6,4	;volatile
  1426                           
  1427                           ;controle_motor.c: 36:     PORTBbits.RB5 = 1;
  1428     0B12  1686               	bsf	6,5	;volatile
  1429     0B13                     l74:
  1430     0B13  0008               	return
  1431     0B14                     __end_of_motores_frente:
  1432                           
  1433                           	psect	text6
  1434     0BBF                     __ptext6:	
  1435 ;; *************** function _inicializar_sistema *****************
  1436 ;; Defined at:
  1437 ;;		line 20 in file "main.c"
  1438 ;; Parameters:    Size  Location     Type
  1439 ;;		None
  1440 ;; Auto vars:     Size  Location     Type
  1441 ;;		None
  1442 ;; Return value:  Size  Location     Type
  1443 ;;                  1    wreg      void 
  1444 ;; Registers used:
  1445 ;;		wreg, status,2, status,0, btemp+1, pclath, cstack
  1446 ;; Tracked objects:
  1447 ;;		On entry : 0/0
  1448 ;;		On exit  : 0/0
  1449 ;;		Unchanged: 0/0
  1450 ;; Data sizes:     COMMON   BANK0   BANK1   BANK3   BANK2
  1451 ;;      Params:         0       0       0       0       0
  1452 ;;      Locals:         0       0       0       0       0
  1453 ;;      Temps:          0       0       0       0       0
  1454 ;;      Totals:         0       0       0       0       0
  1455 ;;Total ram usage:        0 bytes
  1456 ;; Hardware stack levels used: 1
  1457 ;; Hardware stack levels required when called: 4
  1458 ;; This function calls:
  1459 ;;		_comunicar_esp32_inicializar_usart
  1460 ;;		_feedback_inicializar
  1461 ;;		_inicializar_motor
  1462 ;; This function is called by:
  1463 ;;		_main
  1464 ;; This function uses a non-reentrant model
  1465 ;;
  1466                           
  1467     0BBF                     _inicializar_sistema:	
  1468                           ;psect for function _inicializar_sistema
  1469                           
  1470     0BBF                     l3199:	
  1471                           ;incstack = 0
  1472                           ; Regs used in _inicializar_sistema: [wreg+status,2+status,0+btemp+1+pclath+cstack]
  1473                           
  1474                           
  1475                           ;main.c: 21:     ADCON1 = 0x06;
  1476     0BBF  3006               	movlw	6
  1477     0BC0  1683               	bsf	3,5	;RP0=1, select bank1
  1478     0BC1  1303               	bcf	3,6	;RP1=0, select bank1
  1479     0BC2  009F               	movwf	31	;volatile
  1480                           
  1481                           ;main.c: 22:     CMCON = 0x07;
  1482     0BC3  3007               	movlw	7
  1483     0BC4  009C               	movwf	28	;volatile
  1484     0BC5                     l3201:
  1485                           
  1486                           ;main.c: 24:     inicializar_motor();
  1487     0BC5  120A  158A  2349  120A  158A  	fcall	_inicializar_motor
  1488                           
  1489                           ;main.c: 25:     feedback_inicializar();
  1490     0BCA  120A  158A  2355  120A  158A  	fcall	_feedback_inicializar
  1491     0BCF                     l3203:
  1492                           
  1493                           ;main.c: 26:     comunicar_esp32_inicializar_usart(9600);
  1494     0BCF  3000               	movlw	0
  1495     0BD0  1683               	bsf	3,5	;RP0=1, select bank1
  1496     0BD1  1303               	bcf	3,6	;RP1=0, select bank1
  1497     0BD2  00CF               	movwf	(comunicar_esp32_inicializar_usart@baud_rate+3)^(0+128)
  1498     0BD3  3000               	movlw	0
  1499     0BD4  00CE               	movwf	(comunicar_esp32_inicializar_usart@baud_rate+2)^(0+128)
  1500     0BD5  3025               	movlw	37
  1501     0BD6  00CD               	movwf	(comunicar_esp32_inicializar_usart@baud_rate+1)^(0+128)
  1502     0BD7  3080               	movlw	128
  1503     0BD8  00CC               	movwf	comunicar_esp32_inicializar_usart@baud_rate^(0+128)
  1504     0BD9  120A  118A  2652  120A  158A  	fcall	_comunicar_esp32_inicializar_usart
  1505     0BDE                     l37:
  1506     0BDE  0008               	return
  1507     0BDF                     __end_of_inicializar_sistema:
  1508                           
  1509                           	psect	text7
  1510     0B49                     __ptext7:	
  1511 ;; *************** function _inicializar_motor *****************
  1512 ;; Defined at:
  1513 ;;		line 8 in file "controle_motor.c"
  1514 ;; Parameters:    Size  Location     Type
  1515 ;;		None
  1516 ;; Auto vars:     Size  Location     Type
  1517 ;;		None
  1518 ;; Return value:  Size  Location     Type
  1519 ;;                  1    wreg      void 
  1520 ;; Registers used:
  1521 ;;		status,2, status,0, pclath, cstack
  1522 ;; Tracked objects:
  1523 ;;		On entry : 0/0
  1524 ;;		On exit  : 0/0
  1525 ;;		Unchanged: 0/0
  1526 ;; Data sizes:     COMMON   BANK0   BANK1   BANK3   BANK2
  1527 ;;      Params:         0       0       0       0       0
  1528 ;;      Locals:         0       0       0       0       0
  1529 ;;      Temps:          0       0       0       0       0
  1530 ;;      Totals:         0       0       0       0       0
  1531 ;;Total ram usage:        0 bytes
  1532 ;; Hardware stack levels used: 1
  1533 ;; Hardware stack levels required when called: 2
  1534 ;; This function calls:
  1535 ;;		_motores_parar_freio
  1536 ;; This function is called by:
  1537 ;;		_inicializar_sistema
  1538 ;; This function uses a non-reentrant model
  1539 ;;
  1540                           
  1541     0B49                     _inicializar_motor:	
  1542                           ;psect for function _inicializar_motor
  1543                           
  1544     0B49                     l3121:	
  1545                           ;incstack = 0
  1546                           ; Regs used in _inicializar_motor: [status,2+status,0+pclath+cstack]
  1547                           
  1548                           
  1549                           ;controle_motor.c: 10:     TRISBbits.TRISB1 = 0;
  1550     0B49  1683               	bsf	3,5	;RP0=1, select bank1
  1551     0B4A  1303               	bcf	3,6	;RP1=0, select bank1
  1552     0B4B  1086               	bcf	6,1	;volatile
  1553                           
  1554                           ;controle_motor.c: 11:     TRISBbits.TRISB2 = 0;
  1555     0B4C  1106               	bcf	6,2	;volatile
  1556                           
  1557                           ;controle_motor.c: 12:     TRISBbits.TRISB4 = 0;
  1558     0B4D  1206               	bcf	6,4	;volatile
  1559                           
  1560                           ;controle_motor.c: 13:     TRISBbits.TRISB5 = 0;
  1561     0B4E  1286               	bcf	6,5	;volatile
  1562     0B4F                     l3123:
  1563                           
  1564                           ;controle_motor.c: 15:     motores_parar_freio();
  1565     0B4F  120A  158A  2306  120A  158A  	fcall	_motores_parar_freio
  1566     0B54                     l65:
  1567     0B54  0008               	return
  1568     0B55                     __end_of_inicializar_motor:
  1569                           
  1570                           	psect	text8
  1571     0B06                     __ptext8:	
  1572 ;; *************** function _motores_parar_freio *****************
  1573 ;; Defined at:
  1574 ;;		line 25 in file "controle_motor.c"
  1575 ;; Parameters:    Size  Location     Type
  1576 ;;		None
  1577 ;; Auto vars:     Size  Location     Type
  1578 ;;		None
  1579 ;; Return value:  Size  Location     Type
  1580 ;;                  1    wreg      void 
  1581 ;; Registers used:
  1582 ;;		None
  1583 ;; Tracked objects:
  1584 ;;		On entry : 0/0
  1585 ;;		On exit  : 0/0
  1586 ;;		Unchanged: 0/0
  1587 ;; Data sizes:     COMMON   BANK0   BANK1   BANK3   BANK2
  1588 ;;      Params:         0       0       0       0       0
  1589 ;;      Locals:         0       0       0       0       0
  1590 ;;      Temps:          0       0       0       0       0
  1591 ;;      Totals:         0       0       0       0       0
  1592 ;;Total ram usage:        0 bytes
  1593 ;; Hardware stack levels used: 1
  1594 ;; Hardware stack levels required when called: 1
  1595 ;; This function calls:
  1596 ;;		Nothing
  1597 ;; This function is called by:
  1598 ;;		_main
  1599 ;;		_inicializar_motor
  1600 ;; This function uses a non-reentrant model
  1601 ;;
  1602                           
  1603     0B06                     _motores_parar_freio:	
  1604                           ;psect for function _motores_parar_freio
  1605                           
  1606     0B06                     l2551:	
  1607                           ;incstack = 0
  1608                           ; Regs used in _motores_parar_freio: []
  1609                           
  1610                           
  1611                           ;controle_motor.c: 26:     PORTBbits.RB1 = 1;
  1612     0B06  1283               	bcf	3,5	;RP0=0, select bank0
  1613     0B07  1303               	bcf	3,6	;RP1=0, select bank0
  1614     0B08  1486               	bsf	6,1	;volatile
  1615                           
  1616                           ;controle_motor.c: 27:     PORTBbits.RB2 = 1;
  1617     0B09  1506               	bsf	6,2	;volatile
  1618                           
  1619                           ;controle_motor.c: 28:     PORTBbits.RB4 = 1;
  1620     0B0A  1606               	bsf	6,4	;volatile
  1621                           
  1622                           ;controle_motor.c: 29:     PORTBbits.RB5 = 1;
  1623     0B0B  1686               	bsf	6,5	;volatile
  1624     0B0C                     l71:
  1625     0B0C  0008               	return
  1626     0B0D                     __end_of_motores_parar_freio:
  1627                           
  1628                           	psect	text9
  1629     0B55                     __ptext9:	
  1630 ;; *************** function _feedback_inicializar *****************
  1631 ;; Defined at:
  1632 ;;		line 20 in file "feedback_robo.c"
  1633 ;; Parameters:    Size  Location     Type
  1634 ;;		None
  1635 ;; Auto vars:     Size  Location     Type
  1636 ;;		None
  1637 ;; Return value:  Size  Location     Type
  1638 ;;                  1    wreg      void 
  1639 ;; Registers used:
  1640 ;;		None
  1641 ;; Tracked objects:
  1642 ;;		On entry : 0/0
  1643 ;;		On exit  : 0/0
  1644 ;;		Unchanged: 0/0
  1645 ;; Data sizes:     COMMON   BANK0   BANK1   BANK3   BANK2
  1646 ;;      Params:         0       0       0       0       0
  1647 ;;      Locals:         0       0       0       0       0
  1648 ;;      Temps:          0       0       0       0       0
  1649 ;;      Totals:         0       0       0       0       0
  1650 ;;Total ram usage:        0 bytes
  1651 ;; Hardware stack levels used: 1
  1652 ;; Hardware stack levels required when called: 1
  1653 ;; This function calls:
  1654 ;;		Nothing
  1655 ;; This function is called by:
  1656 ;;		_inicializar_sistema
  1657 ;; This function uses a non-reentrant model
  1658 ;;
  1659                           
  1660     0B55                     _feedback_inicializar:	
  1661                           ;psect for function _feedback_inicializar
  1662                           
  1663     0B55                     l3125:	
  1664                           ;incstack = 0
  1665                           ; Regs used in _feedback_inicializar: []
  1666                           
  1667                           
  1668                           ;feedback_robo.c: 22:     TRISDbits.TRISD5 = 0;
  1669     0B55  1683               	bsf	3,5	;RP0=1, select bank1
  1670     0B56  1303               	bcf	3,6	;RP1=0, select bank1
  1671     0B57  1288               	bcf	8,5	;volatile
  1672                           
  1673                           ;feedback_robo.c: 23:     TRISDbits.TRISD7 = 0;
  1674     0B58  1388               	bcf	8,7	;volatile
  1675                           
  1676                           ;feedback_robo.c: 24:     TRISDbits.TRISD6 = 0;
  1677     0B59  1308               	bcf	8,6	;volatile
  1678                           
  1679                           ;feedback_robo.c: 25:     TRISDbits.TRISD1 = 0;
  1680     0B5A  1088               	bcf	8,1	;volatile
  1681                           
  1682                           ;feedback_robo.c: 28:     (PORTDbits.RD5 = 0);
  1683     0B5B  1283               	bcf	3,5	;RP0=0, select bank0
  1684     0B5C  1303               	bcf	3,6	;RP1=0, select bank0
  1685     0B5D  1288               	bcf	8,5	;volatile
  1686                           
  1687                           ;feedback_robo.c: 29:     (PORTDbits.RD7 = 0);
  1688     0B5E  1388               	bcf	8,7	;volatile
  1689                           
  1690                           ;feedback_robo.c: 30:     (PORTDbits.RD6 = 0);
  1691     0B5F  1308               	bcf	8,6	;volatile
  1692                           
  1693                           ;feedback_robo.c: 31:     (PORTDbits.RD1 = 0);
  1694     0B60  1088               	bcf	8,1	;volatile
  1695     0B61                     l98:
  1696     0B61  0008               	return
  1697     0B62                     __end_of_feedback_inicializar:
  1698                           
  1699                           	psect	text10
  1700     0652                     __ptext10:	
  1701 ;; *************** function _comunicar_esp32_inicializar_usart *****************
  1702 ;; Defined at:
  1703 ;;		line 61 in file "comunicar_esp32.c"
  1704 ;; Parameters:    Size  Location     Type
  1705 ;;  baud_rate       4   12[BANK1 ] long 
  1706 ;; Auto vars:     Size  Location     Type
  1707 ;;  spbrg_valor_    2   16[BANK1 ] unsigned int 
  1708 ;;  dummy           1    0        unsigned char 
  1709 ;; Return value:  Size  Location     Type
  1710 ;;                  1    wreg      void 
  1711 ;; Registers used:
  1712 ;;		wreg, status,2, status,0, btemp+1, pclath, cstack
  1713 ;; Tracked objects:
  1714 ;;		On entry : 0/0
  1715 ;;		On exit  : 0/0
  1716 ;;		Unchanged: 0/0
  1717 ;; Data sizes:     COMMON   BANK0   BANK1   BANK3   BANK2
  1718 ;;      Params:         0       0       4       0       0
  1719 ;;      Locals:         0       0       2       0       0
  1720 ;;      Temps:          0       0       0       0       0
  1721 ;;      Totals:         0       0       6       0       0
  1722 ;;Total ram usage:        6 bytes
  1723 ;; Hardware stack levels used: 1
  1724 ;; Hardware stack levels required when called: 3
  1725 ;; This function calls:
  1726 ;;		___fladd
  1727 ;;		___fldiv
  1728 ;;		___flmul
  1729 ;;		___fltol
  1730 ;;		___xxtofl
  1731 ;; This function is called by:
  1732 ;;		_inicializar_sistema
  1733 ;; This function uses a non-reentrant model
  1734 ;;
  1735                           
  1736     0652                     _comunicar_esp32_inicializar_usart:	
  1737                           ;psect for function _comunicar_esp32_inicializar_usart
  1738                           
  1739     0652                     l3127:	
  1740                           ;incstack = 0
  1741                           ; Regs used in _comunicar_esp32_inicializar_usart: [wreg+status,2+status,0+btemp+1+pclat
      +                          h+cstack]
  1742                           
  1743                           
  1744                           ;comunicar_esp32.c: 62:     TRISCbits.TRISC7 = 1;
  1745     0652  1683               	bsf	3,5	;RP0=1, select bank1
  1746     0653  1303               	bcf	3,6	;RP1=0, select bank1
  1747     0654  1787               	bsf	7,7	;volatile
  1748                           
  1749                           ;comunicar_esp32.c: 63:     TRISCbits.TRISC6 = 0;
  1750     0655  1307               	bcf	7,6	;volatile
  1751                           
  1752                           ;comunicar_esp32.c: 65:     unsigned int spbrg_valor_calc;;comunicar_esp32.c: 67:     TX
      +                          STAbits.BRGH = 1;
  1753     0656  1518               	bsf	24,2	;volatile
  1754     0657                     l3129:
  1755                           
  1756                           ;comunicar_esp32.c: 69:     if (baud_rate > 0) {
  1757     0657  1BCF               	btfsc	(comunicar_esp32_inicializar_usart@baud_rate+3)^(0+128),7
  1758     0658  2E69               	goto	u4731
  1759     0659  084F               	movf	(comunicar_esp32_inicializar_usart@baud_rate+3)^(0+128),w
  1760     065A  1D03               	btfss	3,2
  1761     065B  2E6A               	goto	u4730
  1762     065C  084E               	movf	(comunicar_esp32_inicializar_usart@baud_rate+2)^(0+128),w
  1763     065D  1D03               	btfss	3,2
  1764     065E  2E6A               	goto	u4730
  1765     065F  084D               	movf	(comunicar_esp32_inicializar_usart@baud_rate+1)^(0+128),w
  1766     0660  1D03               	btfss	3,2
  1767     0661  2E6A               	goto	u4730
  1768     0662  3001               	movlw	1
  1769     0663  024C               	subwf	comunicar_esp32_inicializar_usart@baud_rate^(0+128),w
  1770     0664  1D03               	skipz
  1771     0665  2E66               	goto	u4733
  1772     0666                     u4733:
  1773     0666  1C03               	btfss	3,0
  1774     0667  2E69               	goto	u4731
  1775     0668  2E6A               	goto	u4730
  1776     0669                     u4731:
  1777     0669  2EE5               	goto	l3133
  1778     066A                     u4730:
  1779     066A                     l3131:
  1780                           
  1781                           ;comunicar_esp32.c: 71:         spbrg_valor_calc = (unsigned int)(((double)4000000 / (16
      +                          .0 * (double)baud_rate)) - 1.0);
  1782     066A  304A               	movlw	74
  1783     066B  1283               	bcf	3,5	;RP0=0, select bank0
  1784     066C  1303               	bcf	3,6	;RP1=0, select bank0
  1785     066D  00CB               	movwf	___fldiv@b+3
  1786     066E  3074               	movlw	116
  1787     066F  00CA               	movwf	___fldiv@b+2
  1788     0670  3024               	movlw	36
  1789     0671  00C9               	movwf	___fldiv@b+1
  1790     0672  3000               	movlw	0
  1791     0673  00C8               	movwf	___fldiv@b
  1792     0674  1683               	bsf	3,5	;RP0=1, select bank1
  1793     0675  1303               	bcf	3,6	;RP1=0, select bank1
  1794     0676  084F               	movf	(comunicar_esp32_inicializar_usart@baud_rate+3)^(0+128),w
  1795     0677  00F7               	movwf	___xxtofl@val+3
  1796     0678  084E               	movf	(comunicar_esp32_inicializar_usart@baud_rate+2)^(0+128),w
  1797     0679  00F6               	movwf	___xxtofl@val+2
  1798     067A  084D               	movf	(comunicar_esp32_inicializar_usart@baud_rate+1)^(0+128),w
  1799     067B  00F5               	movwf	___xxtofl@val+1
  1800     067C  084C               	movf	comunicar_esp32_inicializar_usart@baud_rate^(0+128),w
  1801     067D  00F4               	movwf	___xxtofl@val
  1802     067E  3001               	movlw	1
  1803     067F  120A  118A  2710  120A  118A  	fcall	___xxtofl
  1804     0684  0877               	movf	?___xxtofl+3,w
  1805     0685  1283               	bcf	3,5	;RP0=0, select bank0
  1806     0686  1303               	bcf	3,6	;RP1=0, select bank0
  1807     0687  00B1               	movwf	___flmul@a+3
  1808     0688  0876               	movf	?___xxtofl+2,w
  1809     0689  00B0               	movwf	___flmul@a+2
  1810     068A  0875               	movf	?___xxtofl+1,w
  1811     068B  00AF               	movwf	___flmul@a+1
  1812     068C  0874               	movf	?___xxtofl,w
  1813     068D  00AE               	movwf	___flmul@a
  1814     068E  3041               	movlw	65
  1815     068F  00AD               	movwf	___flmul@b+3
  1816     0690  3080               	movlw	128
  1817     0691  00AC               	movwf	___flmul@b+2
  1818     0692  3000               	movlw	0
  1819     0693  00AB               	movwf	___flmul@b+1
  1820     0694  3000               	movlw	0
  1821     0695  00AA               	movwf	___flmul@b
  1822     0696  120A  118A  2020  120A  118A  	fcall	___flmul
  1823     069B  1283               	bcf	3,5	;RP0=0, select bank0
  1824     069C  1303               	bcf	3,6	;RP1=0, select bank0
  1825     069D  082D               	movf	?___flmul+3,w
  1826     069E  00C7               	movwf	___fldiv@a+3
  1827     069F  082C               	movf	?___flmul+2,w
  1828     06A0  00C6               	movwf	___fldiv@a+2
  1829     06A1  082B               	movf	?___flmul+1,w
  1830     06A2  00C5               	movwf	___fldiv@a+1
  1831     06A3  082A               	movf	?___flmul,w
  1832     06A4  00C4               	movwf	___fldiv@a
  1833     06A5  120A  158A  2636  120A  118A  	fcall	___fldiv
  1834     06AA  1283               	bcf	3,5	;RP0=0, select bank0
  1835     06AB  1303               	bcf	3,6	;RP1=0, select bank0
  1836     06AC  0847               	movf	?___fldiv+3,w
  1837     06AD  00E5               	movwf	___fladd@a+3
  1838     06AE  0846               	movf	?___fldiv+2,w
  1839     06AF  00E4               	movwf	___fladd@a+2
  1840     06B0  0845               	movf	?___fldiv+1,w
  1841     06B1  00E3               	movwf	___fladd@a+1
  1842     06B2  0844               	movf	?___fldiv,w
  1843     06B3  00E2               	movwf	___fladd@a
  1844     06B4  30BF               	movlw	191
  1845     06B5  00E1               	movwf	___fladd@b+3
  1846     06B6  3080               	movlw	128
  1847     06B7  00E0               	movwf	___fladd@b+2
  1848     06B8  3000               	movlw	0
  1849     06B9  00DF               	movwf	___fladd@b+1
  1850     06BA  3000               	movlw	0
  1851     06BB  00DE               	movwf	___fladd@b
  1852     06BC  120A  118A  2362  120A  118A  	fcall	___fladd
  1853     06C1  1283               	bcf	3,5	;RP0=0, select bank0
  1854     06C2  1303               	bcf	3,6	;RP1=0, select bank0
  1855     06C3  0861               	movf	?___fladd+3,w
  1856     06C4  1683               	bsf	3,5	;RP0=1, select bank1
  1857     06C5  1303               	bcf	3,6	;RP1=0, select bank1
  1858     06C6  00C7               	movwf	(___fltol@f1+3)^(0+128)
  1859     06C7  1283               	bcf	3,5	;RP0=0, select bank0
  1860     06C8  1303               	bcf	3,6	;RP1=0, select bank0
  1861     06C9  0860               	movf	?___fladd+2,w
  1862     06CA  1683               	bsf	3,5	;RP0=1, select bank1
  1863     06CB  1303               	bcf	3,6	;RP1=0, select bank1
  1864     06CC  00C6               	movwf	(___fltol@f1+2)^(0+128)
  1865     06CD  1283               	bcf	3,5	;RP0=0, select bank0
  1866     06CE  1303               	bcf	3,6	;RP1=0, select bank0
  1867     06CF  085F               	movf	?___fladd+1,w
  1868     06D0  1683               	bsf	3,5	;RP0=1, select bank1
  1869     06D1  1303               	bcf	3,6	;RP1=0, select bank1
  1870     06D2  00C5               	movwf	(___fltol@f1+1)^(0+128)
  1871     06D3  1283               	bcf	3,5	;RP0=0, select bank0
  1872     06D4  1303               	bcf	3,6	;RP1=0, select bank0
  1873     06D5  085E               	movf	?___fladd,w
  1874     06D6  1683               	bsf	3,5	;RP0=1, select bank1
  1875     06D7  1303               	bcf	3,6	;RP1=0, select bank1
  1876     06D8  00C4               	movwf	___fltol@f1^(0+128)
  1877     06D9  120A  158A  2505  120A  118A  	fcall	___fltol
  1878     06DE  1683               	bsf	3,5	;RP0=1, select bank1
  1879     06DF  1303               	bcf	3,6	;RP1=0, select bank1
  1880     06E0  0845               	movf	(?___fltol+1)^(0+128),w
  1881     06E1  00D1               	movwf	(comunicar_esp32_inicializar_usart@spbrg_valor_calc+1)^(0+128)
  1882     06E2  0844               	movf	?___fltol^(0+128),w
  1883     06E3  00D0               	movwf	comunicar_esp32_inicializar_usart@spbrg_valor_calc^(0+128)
  1884                           
  1885                           ;comunicar_esp32.c: 72:     } else {
  1886     06E4  2EEB               	goto	l200
  1887     06E5                     l3133:
  1888                           
  1889                           ;comunicar_esp32.c: 74:         spbrg_valor_calc = 25;
  1890     06E5  3019               	movlw	25
  1891     06E6  1683               	bsf	3,5	;RP0=1, select bank1
  1892     06E7  1303               	bcf	3,6	;RP1=0, select bank1
  1893     06E8  00D0               	movwf	comunicar_esp32_inicializar_usart@spbrg_valor_calc^(0+128)
  1894     06E9  3000               	movlw	0
  1895     06EA  00D1               	movwf	(comunicar_esp32_inicializar_usart@spbrg_valor_calc^(0+128)+1)
  1896     06EB                     l200:	
  1897                           ;comunicar_esp32.c: 75:     }
  1898                           
  1899                           
  1900                           ;comunicar_esp32.c: 78:     SPBRG = (unsigned char)spbrg_valor_calc;
  1901     06EB  0850               	movf	comunicar_esp32_inicializar_usart@spbrg_valor_calc^(0+128),w
  1902     06EC  0099               	movwf	25	;volatile
  1903     06ED                     l3135:
  1904                           
  1905                           ;comunicar_esp32.c: 80:     TXSTAbits.SYNC = 0;
  1906     06ED  1218               	bcf	24,4	;volatile
  1907     06EE                     l3137:
  1908                           
  1909                           ;comunicar_esp32.c: 81:     RCSTAbits.SPEN = 1;
  1910     06EE  1283               	bcf	3,5	;RP0=0, select bank0
  1911     06EF  1303               	bcf	3,6	;RP1=0, select bank0
  1912     06F0  1798               	bsf	24,7	;volatile
  1913     06F1                     l3139:
  1914                           
  1915                           ;comunicar_esp32.c: 82:     TXSTAbits.TXEN = 1;
  1916     06F1  1683               	bsf	3,5	;RP0=1, select bank1
  1917     06F2  1303               	bcf	3,6	;RP1=0, select bank1
  1918     06F3  1698               	bsf	24,5	;volatile
  1919     06F4                     l3141:
  1920                           
  1921                           ;comunicar_esp32.c: 83:     RCSTAbits.CREN = 1;
  1922     06F4  1283               	bcf	3,5	;RP0=0, select bank0
  1923     06F5  1303               	bcf	3,6	;RP1=0, select bank0
  1924     06F6  1618               	bsf	24,4	;volatile
  1925     06F7                     l3143:
  1926                           
  1927                           ;comunicar_esp32.c: 85:     PIE1bits.RCIE = 1;
  1928     06F7  1683               	bsf	3,5	;RP0=1, select bank1
  1929     06F8  1303               	bcf	3,6	;RP1=0, select bank1
  1930     06F9  168C               	bsf	12,5	;volatile
  1931     06FA                     l3145:
  1932                           
  1933                           ;comunicar_esp32.c: 86:     INTCONbits.PEIE = 1;
  1934     06FA  170B               	bsf	11,6	;volatile
  1935     06FB                     l3147:
  1936                           
  1937                           ;comunicar_esp32.c: 87:     INTCONbits.GIE = 1;
  1938     06FB  178B               	bsf	11,7	;volatile
  1939     06FC                     l3149:
  1940                           
  1941                           ;comunicar_esp32.c: 89:     indice_buffer_rx_usart = 0;
  1942     06FC  01F9               	clrf	_indice_buffer_rx_usart	;volatile
  1943     06FD                     l3151:
  1944                           
  1945                           ;comunicar_esp32.c: 90:     flag_comando_disponivel = 0;
  1946     06FD  01F8               	clrf	_flag_comando_disponivel	;volatile
  1947     06FE                     l3153:
  1948                           
  1949                           ;comunicar_esp32.c: 93:     char dummy;;comunicar_esp32.c: 94:     if(PIR1bits.RCIF) dum
      +                          my = RCREG;
  1950     06FE  1283               	bcf	3,5	;RP0=0, select bank0
  1951     06FF  1303               	bcf	3,6	;RP1=0, select bank0
  1952     0700  1E8C               	btfss	12,5	;volatile
  1953     0701  2F03               	goto	u4741
  1954     0702  2F04               	goto	u4740
  1955     0703                     u4741:
  1956     0703  2F05               	goto	l3157
  1957     0704                     u4740:
  1958     0704                     l3155:
  1959     0704  081A               	movf	26,w	;volatile
  1960     0705                     l3157:
  1961                           
  1962                           ;comunicar_esp32.c: 95:     if(PIR1bits.RCIF) dummy = RCREG;
  1963     0705  1E8C               	btfss	12,5	;volatile
  1964     0706  2F08               	goto	u4751
  1965     0707  2F09               	goto	u4750
  1966     0708                     u4751:
  1967     0708  2F0A               	goto	l3161
  1968     0709                     u4750:
  1969     0709                     l3159:
  1970     0709  081A               	movf	26,w	;volatile
  1971     070A                     l3161:
  1972                           
  1973                           ;comunicar_esp32.c: 96:     if(PIR1bits.RCIF) dummy = RCREG;
  1974     070A  1E8C               	btfss	12,5	;volatile
  1975     070B  2F0D               	goto	u4761
  1976     070C  2F0E               	goto	u4760
  1977     070D                     u4761:
  1978     070D  2F0F               	goto	l204
  1979     070E                     u4760:
  1980     070E                     l3163:
  1981     070E  081A               	movf	26,w	;volatile
  1982     070F                     l204:
  1983     070F  0008               	return
  1984     0710                     __end_of_comunicar_esp32_inicializar_usart:
  1985                           
  1986                           	psect	text11
  1987     0710                     __ptext11:	
  1988 ;; *************** function ___xxtofl *****************
  1989 ;; Defined at:
  1990 ;;		line 10 in file "C:\Program Files\Microchip\xc8\v3.00\pic\sources\c99\common\xxtofl.c"
  1991 ;; Parameters:    Size  Location     Type
  1992 ;;  sign            1    wreg     unsigned char 
  1993 ;;  val             4    4[COMMON] long 
  1994 ;; Auto vars:     Size  Location     Type
  1995 ;;  sign            1    4[BANK0 ] unsigned char 
  1996 ;;  arg             4    6[BANK0 ] unsigned long 
  1997 ;;  exp             1    5[BANK0 ] unsigned char 
  1998 ;; Return value:  Size  Location     Type
  1999 ;;                  4    4[COMMON] unsigned char 
  2000 ;; Registers used:
  2001 ;;		wreg, status,2, status,0
  2002 ;; Tracked objects:
  2003 ;;		On entry : 0/0
  2004 ;;		On exit  : 0/0
  2005 ;;		Unchanged: 0/0
  2006 ;; Data sizes:     COMMON   BANK0   BANK1   BANK3   BANK2
  2007 ;;      Params:         4       0       0       0       0
  2008 ;;      Locals:         0       6       0       0       0
  2009 ;;      Temps:          0       4       0       0       0
  2010 ;;      Totals:         4      10       0       0       0
  2011 ;;Total ram usage:       14 bytes
  2012 ;; Hardware stack levels used: 1
  2013 ;; Hardware stack levels required when called: 1
  2014 ;; This function calls:
  2015 ;;		Nothing
  2016 ;; This function is called by:
  2017 ;;		_comunicar_esp32_inicializar_usart
  2018 ;; This function uses a non-reentrant model
  2019 ;;
  2020                           
  2021     0710                     ___xxtofl:	
  2022                           ;psect for function ___xxtofl
  2023                           
  2024                           
  2025                           ;incstack = 0
  2026                           ; Regs used in ___xxtofl: [wreg+status,2+status,0]
  2027                           ;___xxtofl@sign stored from wreg
  2028     0710  1283               	bcf	3,5	;RP0=0, select bank0
  2029     0711  1303               	bcf	3,6	;RP1=0, select bank0
  2030     0712  00A4               	movwf	___xxtofl@sign
  2031     0713                     l3079:
  2032     0713  0824               	movf	___xxtofl@sign,w
  2033     0714  1903               	btfsc	3,2
  2034     0715  2F17               	goto	u4591
  2035     0716  2F18               	goto	u4590
  2036     0717                     u4591:
  2037     0717  2F2C               	goto	l3085
  2038     0718                     u4590:
  2039     0718                     l3081:
  2040     0718  1FF7               	btfss	___xxtofl@val+3,7
  2041     0719  2F1B               	goto	u4601
  2042     071A  2F1C               	goto	u4600
  2043     071B                     u4601:
  2044     071B  2F2C               	goto	l3085
  2045     071C                     u4600:
  2046     071C                     l3083:
  2047     071C  0974               	comf	___xxtofl@val,w
  2048     071D  00A6               	movwf	___xxtofl@arg
  2049     071E  0975               	comf	___xxtofl@val+1,w
  2050     071F  00A7               	movwf	___xxtofl@arg+1
  2051     0720  0976               	comf	___xxtofl@val+2,w
  2052     0721  00A8               	movwf	___xxtofl@arg+2
  2053     0722  0977               	comf	___xxtofl@val+3,w
  2054     0723  00A9               	movwf	___xxtofl@arg+3
  2055     0724  0AA6               	incf	___xxtofl@arg,f
  2056     0725  1903               	skipnz
  2057     0726  0AA7               	incf	___xxtofl@arg+1,f
  2058     0727  1903               	skipnz
  2059     0728  0AA8               	incf	___xxtofl@arg+2,f
  2060     0729  1903               	skipnz
  2061     072A  0AA9               	incf	___xxtofl@arg+3,f
  2062     072B  2F34               	goto	l754
  2063     072C                     l3085:
  2064     072C  0877               	movf	___xxtofl@val+3,w
  2065     072D  00A9               	movwf	___xxtofl@arg+3
  2066     072E  0876               	movf	___xxtofl@val+2,w
  2067     072F  00A8               	movwf	___xxtofl@arg+2
  2068     0730  0875               	movf	___xxtofl@val+1,w
  2069     0731  00A7               	movwf	___xxtofl@arg+1
  2070     0732  0874               	movf	___xxtofl@val,w
  2071     0733  00A6               	movwf	___xxtofl@arg
  2072     0734                     l754:
  2073     0734  0877               	movf	___xxtofl@val+3,w
  2074     0735  0476               	iorwf	___xxtofl@val+2,w
  2075     0736  0475               	iorwf	___xxtofl@val+1,w
  2076     0737  0474               	iorwf	___xxtofl@val,w
  2077     0738  1D03               	skipz
  2078     0739  2F3B               	goto	u4611
  2079     073A  2F3C               	goto	u4610
  2080     073B                     u4611:
  2081     073B  2F45               	goto	l755
  2082     073C                     u4610:
  2083     073C                     l3087:
  2084     073C  3000               	movlw	0
  2085     073D  00F7               	movwf	?___xxtofl+3
  2086     073E  3000               	movlw	0
  2087     073F  00F6               	movwf	?___xxtofl+2
  2088     0740  3000               	movlw	0
  2089     0741  00F5               	movwf	?___xxtofl+1
  2090     0742  3000               	movlw	0
  2091     0743  00F4               	movwf	?___xxtofl
  2092     0744  2FC5               	goto	l756
  2093     0745                     l755:
  2094     0745  3096               	movlw	150
  2095     0746  00A5               	movwf	___xxtofl@exp
  2096     0747  2F53               	goto	l3093
  2097     0748                     l3091:
  2098     0748  3001               	movlw	1
  2099     0749  07A5               	addwf	___xxtofl@exp,f
  2100     074A  3001               	movlw	1
  2101     074B                     u4625:
  2102     074B  1003               	clrc
  2103     074C  0CA9               	rrf	___xxtofl@arg+3,f
  2104     074D  0CA8               	rrf	___xxtofl@arg+2,f
  2105     074E  0CA7               	rrf	___xxtofl@arg+1,f
  2106     074F  0CA6               	rrf	___xxtofl@arg,f
  2107     0750  3EFF               	addlw	-1
  2108     0751  1D03               	skipz
  2109     0752  2F4B               	goto	u4625
  2110     0753                     l3093:
  2111     0753  30FE               	movlw	254
  2112     0754  0529               	andwf	___xxtofl@arg+3,w
  2113     0755  1D03               	btfss	3,2
  2114     0756  2F58               	goto	u4631
  2115     0757  2F59               	goto	u4630
  2116     0758                     u4631:
  2117     0758  2F48               	goto	l3091
  2118     0759                     u4630:
  2119     0759  2F73               	goto	l760
  2120     075A                     l3095:
  2121     075A  3001               	movlw	1
  2122     075B  07A5               	addwf	___xxtofl@exp,f
  2123     075C                     l3097:
  2124     075C  3001               	movlw	1
  2125     075D  07A6               	addwf	___xxtofl@arg,f
  2126     075E  3000               	movlw	0
  2127     075F  1803               	skipnc
  2128     0760  3001               	movlw	1
  2129     0761  07A7               	addwf	___xxtofl@arg+1,f
  2130     0762  3000               	movlw	0
  2131     0763  1803               	skipnc
  2132     0764  3001               	movlw	1
  2133     0765  07A8               	addwf	___xxtofl@arg+2,f
  2134     0766  3000               	movlw	0
  2135     0767  1803               	skipnc
  2136     0768  3001               	movlw	1
  2137     0769  07A9               	addwf	___xxtofl@arg+3,f
  2138     076A                     l3099:
  2139     076A  3001               	movlw	1
  2140     076B                     u4645:
  2141     076B  1003               	clrc
  2142     076C  0CA9               	rrf	___xxtofl@arg+3,f
  2143     076D  0CA8               	rrf	___xxtofl@arg+2,f
  2144     076E  0CA7               	rrf	___xxtofl@arg+1,f
  2145     076F  0CA6               	rrf	___xxtofl@arg,f
  2146     0770  3EFF               	addlw	-1
  2147     0771  1D03               	skipz
  2148     0772  2F6B               	goto	u4645
  2149     0773                     l760:
  2150     0773  30FF               	movlw	255
  2151     0774  0529               	andwf	___xxtofl@arg+3,w
  2152     0775  1D03               	btfss	3,2
  2153     0776  2F78               	goto	u4651
  2154     0777  2F79               	goto	u4650
  2155     0778                     u4651:
  2156     0778  2F5A               	goto	l3095
  2157     0779                     u4650:
  2158     0779  2F85               	goto	l3103
  2159     077A                     l3101:
  2160     077A  3001               	movlw	1
  2161     077B  02A5               	subwf	___xxtofl@exp,f
  2162     077C  3001               	movlw	1
  2163     077D  00A0               	movwf	??___xxtofl
  2164     077E                     u4665:
  2165     077E  1003               	clrc
  2166     077F  0DA6               	rlf	___xxtofl@arg,f
  2167     0780  0DA7               	rlf	___xxtofl@arg+1,f
  2168     0781  0DA8               	rlf	___xxtofl@arg+2,f
  2169     0782  0DA9               	rlf	___xxtofl@arg+3,f
  2170     0783  0BA0               	decfsz	??___xxtofl,f
  2171     0784  2F7E               	goto	u4665
  2172     0785                     l3103:
  2173     0785  1BA8               	btfsc	___xxtofl@arg+2,7
  2174     0786  2F88               	goto	u4671
  2175     0787  2F89               	goto	u4670
  2176     0788                     u4671:
  2177     0788  2F8F               	goto	l767
  2178     0789                     u4670:
  2179     0789                     l3105:
  2180     0789  3002               	movlw	2
  2181     078A  0225               	subwf	___xxtofl@exp,w
  2182     078B  1803               	skipnc
  2183     078C  2F8E               	goto	u4681
  2184     078D  2F8F               	goto	u4680
  2185     078E                     u4681:
  2186     078E  2F7A               	goto	l3101
  2187     078F                     u4680:
  2188     078F                     l767:
  2189     078F  1825               	btfsc	___xxtofl@exp,0
  2190     0790  2F92               	goto	u4691
  2191     0791  2F93               	goto	u4690
  2192     0792                     u4691:
  2193     0792  2F9B               	goto	l768
  2194     0793                     u4690:
  2195     0793                     l3107:
  2196     0793  30FF               	movlw	255
  2197     0794  05A6               	andwf	___xxtofl@arg,f
  2198     0795  30FF               	movlw	255
  2199     0796  05A7               	andwf	___xxtofl@arg+1,f
  2200     0797  307F               	movlw	127
  2201     0798  05A8               	andwf	___xxtofl@arg+2,f
  2202     0799  30FF               	movlw	255
  2203     079A  05A9               	andwf	___xxtofl@arg+3,f
  2204     079B                     l768:
  2205     079B  1003               	clrc
  2206     079C  0CA5               	rrf	___xxtofl@exp,f
  2207     079D                     l3109:
  2208     079D  0825               	movf	___xxtofl@exp,w
  2209     079E  00A0               	movwf	??___xxtofl
  2210     079F  01A1               	clrf	??___xxtofl+1
  2211     07A0  01A2               	clrf	??___xxtofl+2
  2212     07A1  01A3               	clrf	??___xxtofl+3
  2213     07A2  3018               	movlw	24
  2214     07A3                     u4705:
  2215     07A3  1003               	clrc
  2216     07A4  0DA0               	rlf	??___xxtofl,f
  2217     07A5  0DA1               	rlf	??___xxtofl+1,f
  2218     07A6  0DA2               	rlf	??___xxtofl+2,f
  2219     07A7  0DA3               	rlf	??___xxtofl+3,f
  2220     07A8                     u4700:
  2221     07A8  3EFF               	addlw	-1
  2222     07A9  1D03               	skipz
  2223     07AA  2FA3               	goto	u4705
  2224     07AB  0820               	movf	??___xxtofl,w
  2225     07AC  04A6               	iorwf	___xxtofl@arg,f
  2226     07AD  0821               	movf	??___xxtofl+1,w
  2227     07AE  04A7               	iorwf	___xxtofl@arg+1,f
  2228     07AF  0822               	movf	??___xxtofl+2,w
  2229     07B0  04A8               	iorwf	___xxtofl@arg+2,f
  2230     07B1  0823               	movf	??___xxtofl+3,w
  2231     07B2  04A9               	iorwf	___xxtofl@arg+3,f
  2232     07B3                     l3111:
  2233     07B3  0824               	movf	___xxtofl@sign,w
  2234     07B4  1903               	btfsc	3,2
  2235     07B5  2FB7               	goto	u4711
  2236     07B6  2FB8               	goto	u4710
  2237     07B7                     u4711:
  2238     07B7  2FBD               	goto	l3117
  2239     07B8                     u4710:
  2240     07B8                     l3113:
  2241     07B8  1FF7               	btfss	___xxtofl@val+3,7
  2242     07B9  2FBB               	goto	u4721
  2243     07BA  2FBC               	goto	u4720
  2244     07BB                     u4721:
  2245     07BB  2FBD               	goto	l3117
  2246     07BC                     u4720:
  2247     07BC                     l3115:
  2248     07BC  17A9               	bsf	___xxtofl@arg+3,7
  2249     07BD                     l3117:
  2250     07BD  0829               	movf	___xxtofl@arg+3,w
  2251     07BE  00F7               	movwf	?___xxtofl+3
  2252     07BF  0828               	movf	___xxtofl@arg+2,w
  2253     07C0  00F6               	movwf	?___xxtofl+2
  2254     07C1  0827               	movf	___xxtofl@arg+1,w
  2255     07C2  00F5               	movwf	?___xxtofl+1
  2256     07C3  0826               	movf	___xxtofl@arg,w
  2257     07C4  00F4               	movwf	?___xxtofl
  2258     07C5                     l756:
  2259     07C5  0008               	return
  2260     07C6                     __end_of___xxtofl:
  2261                           
  2262                           	psect	text12
  2263     0D05                     __ptext12:	
  2264 ;; *************** function ___fltol *****************
  2265 ;; Defined at:
  2266 ;;		line 43 in file "C:\Program Files\Microchip\xc8\v3.00\pic\sources\c99\common\fltol.c"
  2267 ;; Parameters:    Size  Location     Type
  2268 ;;  f1              4    4[BANK1 ] unsigned char 
  2269 ;; Auto vars:     Size  Location     Type
  2270 ;;  exp1            1   79[BANK0 ] unsigned char 
  2271 ;;  sign1           1   78[BANK0 ] unsigned char 
  2272 ;; Return value:  Size  Location     Type
  2273 ;;                  4    4[BANK1 ] long 
  2274 ;; Registers used:
  2275 ;;		wreg, status,2, status,0
  2276 ;; Tracked objects:
  2277 ;;		On entry : 0/0
  2278 ;;		On exit  : 0/0
  2279 ;;		Unchanged: 0/0
  2280 ;; Data sizes:     COMMON   BANK0   BANK1   BANK3   BANK2
  2281 ;;      Params:         0       0       4       0       0
  2282 ;;      Locals:         0       2       0       0       0
  2283 ;;      Temps:          0       0       4       0       0
  2284 ;;      Totals:         0       2       8       0       0
  2285 ;;Total ram usage:       10 bytes
  2286 ;; Hardware stack levels used: 1
  2287 ;; Hardware stack levels required when called: 1
  2288 ;; This function calls:
  2289 ;;		Nothing
  2290 ;; This function is called by:
  2291 ;;		_comunicar_esp32_inicializar_usart
  2292 ;; This function uses a non-reentrant model
  2293 ;;
  2294                           
  2295     0D05                     ___fltol:	
  2296                           ;psect for function ___fltol
  2297                           
  2298     0D05                     l2559:	
  2299                           ;incstack = 0
  2300                           ; Regs used in ___fltol: [wreg+status,2+status,0]
  2301                           
  2302     0D05  1003               	clrc
  2303     0D06  1683               	bsf	3,5	;RP0=1, select bank1
  2304     0D07  1303               	bcf	3,6	;RP1=0, select bank1
  2305     0D08  0D46               	rlf	(___fltol@f1+2)^(0+128),w
  2306     0D09  0D47               	rlf	(___fltol@f1+3)^(0+128),w
  2307     0D0A  1283               	bcf	3,5	;RP0=0, select bank0
  2308     0D0B  1303               	bcf	3,6	;RP1=0, select bank0
  2309     0D0C  00EF               	movwf	___fltol@exp1
  2310     0D0D  086F               	movf	___fltol@exp1,w
  2311     0D0E  1D03               	btfss	3,2
  2312     0D0F  2D11               	goto	u3371
  2313     0D10  2D12               	goto	u3370
  2314     0D11                     u3371:
  2315     0D11  2D1D               	goto	l2565
  2316     0D12                     u3370:
  2317     0D12                     l2561:
  2318     0D12  3000               	movlw	0
  2319     0D13  1683               	bsf	3,5	;RP0=1, select bank1
  2320     0D14  1303               	bcf	3,6	;RP1=0, select bank1
  2321     0D15  00C7               	movwf	(?___fltol+3)^(0+128)
  2322     0D16  3000               	movlw	0
  2323     0D17  00C6               	movwf	(?___fltol+2)^(0+128)
  2324     0D18  3000               	movlw	0
  2325     0D19  00C5               	movwf	(?___fltol+1)^(0+128)
  2326     0D1A  3000               	movlw	0
  2327     0D1B  00C4               	movwf	?___fltol^(0+128)
  2328     0D1C  2D90               	goto	l507
  2329     0D1D                     l2565:
  2330     0D1D  1683               	bsf	3,5	;RP0=1, select bank1
  2331     0D1E  1303               	bcf	3,6	;RP1=0, select bank1
  2332     0D1F  0844               	movf	___fltol@f1^(0+128),w
  2333     0D20  00C8               	movwf	??___fltol^(0+128)
  2334     0D21  0845               	movf	(___fltol@f1+1)^(0+128),w
  2335     0D22  00C9               	movwf	(??___fltol^(0+128)+1)
  2336     0D23  0846               	movf	(___fltol@f1+2)^(0+128),w
  2337     0D24  00CA               	movwf	(??___fltol^(0+128)+2)
  2338     0D25  0847               	movf	(___fltol@f1+3)^(0+128),w
  2339     0D26  00CB               	movwf	(??___fltol^(0+128)+3)
  2340     0D27  301F               	movlw	31
  2341     0D28                     u3385:
  2342     0D28  1003               	clrc
  2343     0D29  0CCB               	rrf	(??___fltol^(0+128)+3),f
  2344     0D2A  0CCA               	rrf	(??___fltol^(0+128)+2),f
  2345     0D2B  0CC9               	rrf	(??___fltol^(0+128)+1),f
  2346     0D2C  0CC8               	rrf	??___fltol^(0+128),f
  2347     0D2D                     u3380:
  2348     0D2D  3EFF               	addlw	-1
  2349     0D2E  1D03               	skipz
  2350     0D2F  2D28               	goto	u3385
  2351     0D30  0848               	movf	??___fltol^(0+128),w
  2352     0D31  1283               	bcf	3,5	;RP0=0, select bank0
  2353     0D32  1303               	bcf	3,6	;RP1=0, select bank0
  2354     0D33  00EE               	movwf	___fltol@sign1
  2355     0D34                     l2567:
  2356     0D34  1683               	bsf	3,5	;RP0=1, select bank1
  2357     0D35  1303               	bcf	3,6	;RP1=0, select bank1
  2358     0D36  17C6               	bsf	(___fltol@f1^(0+128)+2),7
  2359     0D37                     l2569:
  2360     0D37  30FF               	movlw	255
  2361     0D38  05C4               	andwf	___fltol@f1^(0+128),f
  2362     0D39  30FF               	movlw	255
  2363     0D3A  05C5               	andwf	(___fltol@f1+1)^(0+128),f
  2364     0D3B  30FF               	movlw	255
  2365     0D3C  05C6               	andwf	(___fltol@f1+2)^(0+128),f
  2366     0D3D  3000               	movlw	0
  2367     0D3E  05C7               	andwf	(___fltol@f1+3)^(0+128),f
  2368     0D3F                     l2571:
  2369     0D3F  3096               	movlw	150
  2370     0D40  1283               	bcf	3,5	;RP0=0, select bank0
  2371     0D41  1303               	bcf	3,6	;RP1=0, select bank0
  2372     0D42  02EF               	subwf	___fltol@exp1,f
  2373     0D43                     l2573:
  2374     0D43  1FEF               	btfss	___fltol@exp1,7
  2375     0D44  2D46               	goto	u3391
  2376     0D45  2D47               	goto	u3390
  2377     0D46                     u3391:
  2378     0D46  2D63               	goto	l2583
  2379     0D47                     u3390:
  2380     0D47                     l2575:
  2381     0D47  086F               	movf	___fltol@exp1,w
  2382     0D48  3A80               	xorlw	128
  2383     0D49  3E97               	addlw	151
  2384     0D4A  1803               	skipnc
  2385     0D4B  2D4D               	goto	u3401
  2386     0D4C  2D4E               	goto	u3400
  2387     0D4D                     u3401:
  2388     0D4D  2D4F               	goto	l2581
  2389     0D4E                     u3400:
  2390     0D4E  2D12               	goto	l2561
  2391     0D4F                     l2581:
  2392     0D4F  3001               	movlw	1
  2393     0D50                     u3415:
  2394     0D50  1003               	clrc
  2395     0D51  1683               	bsf	3,5	;RP0=1, select bank1
  2396     0D52  1303               	bcf	3,6	;RP1=0, select bank1
  2397     0D53  0CC7               	rrf	(___fltol@f1+3)^(0+128),f
  2398     0D54  0CC6               	rrf	(___fltol@f1+2)^(0+128),f
  2399     0D55  0CC5               	rrf	(___fltol@f1+1)^(0+128),f
  2400     0D56  0CC4               	rrf	___fltol@f1^(0+128),f
  2401     0D57  3EFF               	addlw	-1
  2402     0D58  1D03               	skipz
  2403     0D59  2D50               	goto	u3415
  2404     0D5A  3001               	movlw	1
  2405     0D5B  1283               	bcf	3,5	;RP0=0, select bank0
  2406     0D5C  1303               	bcf	3,6	;RP1=0, select bank0
  2407     0D5D  07EF               	addwf	___fltol@exp1,f
  2408     0D5E  1D03               	btfss	3,2
  2409     0D5F  2D61               	goto	u3421
  2410     0D60  2D62               	goto	u3420
  2411     0D61                     u3421:
  2412     0D61  2D4F               	goto	l2581
  2413     0D62                     u3420:
  2414     0D62  2D7E               	goto	l2591
  2415     0D63                     l2583:
  2416     0D63  3020               	movlw	32
  2417     0D64  026F               	subwf	___fltol@exp1,w
  2418     0D65  1C03               	skipc
  2419     0D66  2D68               	goto	u3431
  2420     0D67  2D69               	goto	u3430
  2421     0D68                     u3431:
  2422     0D68  2D79               	goto	l514
  2423     0D69                     u3430:
  2424     0D69  2D12               	goto	l2561
  2425     0D6A                     l2589:
  2426     0D6A  3001               	movlw	1
  2427     0D6B  1683               	bsf	3,5	;RP0=1, select bank1
  2428     0D6C  1303               	bcf	3,6	;RP1=0, select bank1
  2429     0D6D  00C8               	movwf	??___fltol^(0+128)
  2430     0D6E                     u3445:
  2431     0D6E  1003               	clrc
  2432     0D6F  0DC4               	rlf	___fltol@f1^(0+128),f
  2433     0D70  0DC5               	rlf	(___fltol@f1+1)^(0+128),f
  2434     0D71  0DC6               	rlf	(___fltol@f1+2)^(0+128),f
  2435     0D72  0DC7               	rlf	(___fltol@f1+3)^(0+128),f
  2436     0D73  0BC8               	decfsz	??___fltol^(0+128),f
  2437     0D74  2D6E               	goto	u3445
  2438     0D75  3001               	movlw	1
  2439     0D76  1283               	bcf	3,5	;RP0=0, select bank0
  2440     0D77  1303               	bcf	3,6	;RP1=0, select bank0
  2441     0D78  02EF               	subwf	___fltol@exp1,f
  2442     0D79                     l514:
  2443     0D79  086F               	movf	___fltol@exp1,w
  2444     0D7A  1D03               	btfss	3,2
  2445     0D7B  2D7D               	goto	u3451
  2446     0D7C  2D7E               	goto	u3450
  2447     0D7D                     u3451:
  2448     0D7D  2D6A               	goto	l2589
  2449     0D7E                     u3450:
  2450     0D7E                     l2591:
  2451     0D7E  086E               	movf	___fltol@sign1,w
  2452     0D7F  1903               	btfsc	3,2
  2453     0D80  2D82               	goto	u3461
  2454     0D81  2D83               	goto	u3460
  2455     0D82                     u3461:
  2456     0D82  2D90               	goto	l517
  2457     0D83                     u3460:
  2458     0D83                     l2593:
  2459     0D83  1683               	bsf	3,5	;RP0=1, select bank1
  2460     0D84  1303               	bcf	3,6	;RP1=0, select bank1
  2461     0D85  09C4               	comf	___fltol@f1^(0+128),f
  2462     0D86  09C5               	comf	(___fltol@f1+1)^(0+128),f
  2463     0D87  09C6               	comf	(___fltol@f1+2)^(0+128),f
  2464     0D88  09C7               	comf	(___fltol@f1+3)^(0+128),f
  2465     0D89  0AC4               	incf	___fltol@f1^(0+128),f
  2466     0D8A  1903               	skipnz
  2467     0D8B  0AC5               	incf	(___fltol@f1+1)^(0+128),f
  2468     0D8C  1903               	skipnz
  2469     0D8D  0AC6               	incf	(___fltol@f1+2)^(0+128),f
  2470     0D8E  1903               	skipnz
  2471     0D8F  0AC7               	incf	(___fltol@f1+3)^(0+128),f
  2472     0D90                     l517:
  2473     0D90                     l507:
  2474     0D90  0008               	return
  2475     0D91                     __end_of___fltol:
  2476                           
  2477                           	psect	text13
  2478     0020                     __ptext13:	
  2479 ;; *************** function ___flmul *****************
  2480 ;; Defined at:
  2481 ;;		line 8 in file "C:\Program Files\Microchip\xc8\v3.00\pic\sources\c99\common\sprcmul.c"
  2482 ;; Parameters:    Size  Location     Type
  2483 ;;  b               4   10[BANK0 ] long 
  2484 ;;  a               4   14[BANK0 ] long 
  2485 ;; Auto vars:     Size  Location     Type
  2486 ;;  prod            4   30[BANK0 ] struct .
  2487 ;;  grs             4   25[BANK0 ] unsigned long 
  2488 ;;  temp            2   34[BANK0 ] struct .
  2489 ;;  bexp            1   29[BANK0 ] unsigned char 
  2490 ;;  aexp            1   24[BANK0 ] unsigned char 
  2491 ;;  sign            1   23[BANK0 ] unsigned char 
  2492 ;; Return value:  Size  Location     Type
  2493 ;;                  4   10[BANK0 ] unsigned char 
  2494 ;; Registers used:
  2495 ;;		wreg, status,2, status,0, btemp+1, pclath, cstack
  2496 ;; Tracked objects:
  2497 ;;		On entry : 0/0
  2498 ;;		On exit  : 0/0
  2499 ;;		Unchanged: 0/0
  2500 ;; Data sizes:     COMMON   BANK0   BANK1   BANK3   BANK2
  2501 ;;      Params:         0       8       0       0       0
  2502 ;;      Locals:         0      13       0       0       0
  2503 ;;      Temps:          0       5       0       0       0
  2504 ;;      Totals:         0      26       0       0       0
  2505 ;;Total ram usage:       26 bytes
  2506 ;; Hardware stack levels used: 1
  2507 ;; Hardware stack levels required when called: 2
  2508 ;; This function calls:
  2509 ;;		__Umul8_16
  2510 ;; This function is called by:
  2511 ;;		_comunicar_esp32_inicializar_usart
  2512 ;; This function uses a non-reentrant model
  2513 ;;
  2514                           
  2515     0020                     ___flmul:	
  2516                           ;psect for function ___flmul
  2517                           
  2518     0020                     l2937:	
  2519                           ;incstack = 0
  2520                           ; Regs used in ___flmul: [wreg+status,2+status,0+btemp+1+pclath+cstack]
  2521                           
  2522     0020  1283               	bcf	3,5	;RP0=0, select bank0
  2523     0021  1303               	bcf	3,6	;RP1=0, select bank0
  2524     0022  082D               	movf	___flmul@b+3,w
  2525     0023  00B7               	movwf	___flmul@sign
  2526     0024                     l2939:
  2527     0024  3080               	movlw	128
  2528     0025  05B7               	andwf	___flmul@sign,f
  2529     0026                     l2941:
  2530     0026  082D               	movf	___flmul@b+3,w
  2531     0027  00B2               	movwf	??___flmul
  2532     0028  0732               	addwf	??___flmul,w
  2533     0029  00BD               	movwf	___flmul@bexp
  2534     002A                     l2943:
  2535     002A  1FAC               	btfss	___flmul@b+2,7
  2536     002B  282D               	goto	u4221
  2537     002C  282E               	goto	u4220
  2538     002D                     u4221:
  2539     002D  282F               	goto	l2947
  2540     002E                     u4220:
  2541     002E                     l2945:
  2542     002E  143D               	bsf	___flmul@bexp,0
  2543     002F                     l2947:
  2544     002F  083D               	movf	___flmul@bexp,w
  2545     0030  1903               	btfsc	3,2
  2546     0031  2833               	goto	u4231
  2547     0032  2834               	goto	u4230
  2548     0033                     u4231:
  2549     0033  2843               	goto	l2955
  2550     0034                     u4230:
  2551     0034                     l2949:
  2552     0034  0A3D               	incf	___flmul@bexp,w
  2553     0035  1D03               	btfss	3,2
  2554     0036  2838               	goto	u4241
  2555     0037  2839               	goto	u4240
  2556     0038                     u4241:
  2557     0038  2841               	goto	l2953
  2558     0039                     u4240:
  2559     0039                     l2951:
  2560     0039  3000               	movlw	0
  2561     003A  00AD               	movwf	___flmul@b+3
  2562     003B  3000               	movlw	0
  2563     003C  00AC               	movwf	___flmul@b+2
  2564     003D  3000               	movlw	0
  2565     003E  00AB               	movwf	___flmul@b+1
  2566     003F  3000               	movlw	0
  2567     0040  00AA               	movwf	___flmul@b
  2568     0041                     l2953:
  2569     0041  17AC               	bsf	___flmul@b+2,7
  2570     0042  284B               	goto	l2957
  2571     0043                     l2955:
  2572     0043  3000               	movlw	0
  2573     0044  00AD               	movwf	___flmul@b+3
  2574     0045  3000               	movlw	0
  2575     0046  00AC               	movwf	___flmul@b+2
  2576     0047  3000               	movlw	0
  2577     0048  00AB               	movwf	___flmul@b+1
  2578     0049  3000               	movlw	0
  2579     004A  00AA               	movwf	___flmul@b
  2580     004B                     l2957:
  2581     004B  0831               	movf	___flmul@a+3,w
  2582     004C  3980               	andlw	128
  2583     004D  06B7               	xorwf	___flmul@sign,f
  2584     004E                     l2959:
  2585     004E  0831               	movf	___flmul@a+3,w
  2586     004F  00B2               	movwf	??___flmul
  2587     0050  0732               	addwf	??___flmul,w
  2588     0051  00B8               	movwf	___flmul@aexp
  2589     0052                     l2961:
  2590     0052  1FB0               	btfss	___flmul@a+2,7
  2591     0053  2855               	goto	u4251
  2592     0054  2856               	goto	u4250
  2593     0055                     u4251:
  2594     0055  2857               	goto	l2965
  2595     0056                     u4250:
  2596     0056                     l2963:
  2597     0056  1438               	bsf	___flmul@aexp,0
  2598     0057                     l2965:
  2599     0057  0838               	movf	___flmul@aexp,w
  2600     0058  1903               	btfsc	3,2
  2601     0059  285B               	goto	u4261
  2602     005A  285C               	goto	u4260
  2603     005B                     u4261:
  2604     005B  286B               	goto	l2973
  2605     005C                     u4260:
  2606     005C                     l2967:
  2607     005C  0A38               	incf	___flmul@aexp,w
  2608     005D  1D03               	btfss	3,2
  2609     005E  2860               	goto	u4271
  2610     005F  2861               	goto	u4270
  2611     0060                     u4271:
  2612     0060  2869               	goto	l2971
  2613     0061                     u4270:
  2614     0061                     l2969:
  2615     0061  3000               	movlw	0
  2616     0062  00B1               	movwf	___flmul@a+3
  2617     0063  3000               	movlw	0
  2618     0064  00B0               	movwf	___flmul@a+2
  2619     0065  3000               	movlw	0
  2620     0066  00AF               	movwf	___flmul@a+1
  2621     0067  3000               	movlw	0
  2622     0068  00AE               	movwf	___flmul@a
  2623     0069                     l2971:
  2624     0069  17B0               	bsf	___flmul@a+2,7
  2625     006A  2873               	goto	l2975
  2626     006B                     l2973:
  2627     006B  3000               	movlw	0
  2628     006C  00B1               	movwf	___flmul@a+3
  2629     006D  3000               	movlw	0
  2630     006E  00B0               	movwf	___flmul@a+2
  2631     006F  3000               	movlw	0
  2632     0070  00AF               	movwf	___flmul@a+1
  2633     0071  3000               	movlw	0
  2634     0072  00AE               	movwf	___flmul@a
  2635     0073                     l2975:
  2636     0073  0838               	movf	___flmul@aexp,w
  2637     0074  1903               	btfsc	3,2
  2638     0075  2877               	goto	u4281
  2639     0076  2878               	goto	u4280
  2640     0077                     u4281:
  2641     0077  287D               	goto	l2979
  2642     0078                     u4280:
  2643     0078                     l2977:
  2644     0078  083D               	movf	___flmul@bexp,w
  2645     0079  1D03               	btfss	3,2
  2646     007A  287C               	goto	u4291
  2647     007B  287D               	goto	u4290
  2648     007C                     u4291:
  2649     007C  2886               	goto	l2983
  2650     007D                     u4290:
  2651     007D                     l2979:
  2652     007D  3000               	movlw	0
  2653     007E  00AD               	movwf	?___flmul+3
  2654     007F  3000               	movlw	0
  2655     0080  00AC               	movwf	?___flmul+2
  2656     0081  3000               	movlw	0
  2657     0082  00AB               	movwf	?___flmul+1
  2658     0083  3000               	movlw	0
  2659     0084  00AA               	movwf	?___flmul
  2660     0085  2B61               	goto	l710
  2661     0086                     l2983:
  2662     0086  082A               	movf	___flmul@b,w
  2663     0087  00F4               	movwf	__Umul8_16@multiplicand
  2664     0088  0830               	movf	___flmul@a+2,w
  2665     0089  120A  158A  23DF  120A  118A  	fcall	__Umul8_16
  2666     008E  0875               	movf	?__Umul8_16+1,w
  2667     008F  1283               	bcf	3,5	;RP0=0, select bank0
  2668     0090  1303               	bcf	3,6	;RP1=0, select bank0
  2669     0091  00C3               	movwf	___flmul@temp+1
  2670     0092  0874               	movf	?__Umul8_16,w
  2671     0093  00C2               	movwf	___flmul@temp
  2672     0094                     l2985:
  2673     0094  0842               	movf	___flmul@temp,w
  2674     0095  00B2               	movwf	??___flmul
  2675     0096  01B3               	clrf	??___flmul+1
  2676     0097  01B4               	clrf	??___flmul+2
  2677     0098  01B5               	clrf	??___flmul+3
  2678     0099  0835               	movf	??___flmul+3,w
  2679     009A  00BC               	movwf	___flmul@grs+3
  2680     009B  0834               	movf	??___flmul+2,w
  2681     009C  00BB               	movwf	___flmul@grs+2
  2682     009D  0833               	movf	??___flmul+1,w
  2683     009E  00BA               	movwf	___flmul@grs+1
  2684     009F  0832               	movf	??___flmul,w
  2685     00A0  00B9               	movwf	___flmul@grs
  2686     00A1                     l2987:
  2687     00A1  0843               	movf	___flmul@temp+1,w
  2688     00A2  00B2               	movwf	??___flmul
  2689     00A3  01B3               	clrf	??___flmul+1
  2690     00A4  01B4               	clrf	??___flmul+2
  2691     00A5  01B5               	clrf	??___flmul+3
  2692     00A6  0835               	movf	??___flmul+3,w
  2693     00A7  00C1               	movwf	___flmul@prod+3
  2694     00A8  0834               	movf	??___flmul+2,w
  2695     00A9  00C0               	movwf	___flmul@prod+2
  2696     00AA  0833               	movf	??___flmul+1,w
  2697     00AB  00BF               	movwf	___flmul@prod+1
  2698     00AC  0832               	movf	??___flmul,w
  2699     00AD  00BE               	movwf	___flmul@prod
  2700     00AE  082B               	movf	___flmul@b+1,w
  2701     00AF  00F4               	movwf	__Umul8_16@multiplicand
  2702     00B0  082F               	movf	___flmul@a+1,w
  2703     00B1  120A  158A  23DF  120A  118A  	fcall	__Umul8_16
  2704     00B6  0875               	movf	?__Umul8_16+1,w
  2705     00B7  1283               	bcf	3,5	;RP0=0, select bank0
  2706     00B8  1303               	bcf	3,6	;RP1=0, select bank0
  2707     00B9  00C3               	movwf	___flmul@temp+1
  2708     00BA  0874               	movf	?__Umul8_16,w
  2709     00BB  00C2               	movwf	___flmul@temp
  2710     00BC                     l2989:
  2711     00BC  0842               	movf	___flmul@temp,w
  2712     00BD  00B2               	movwf	??___flmul
  2713     00BE  01B3               	clrf	??___flmul+1
  2714     00BF  01B4               	clrf	??___flmul+2
  2715     00C0  01B5               	clrf	??___flmul+3
  2716     00C1  0832               	movf	??___flmul,w
  2717     00C2  07B9               	addwf	___flmul@grs,f
  2718     00C3  0833               	movf	??___flmul+1,w
  2719     00C4  1103               	clrz
  2720     00C5  1803               	skipnc
  2721     00C6  3E01               	addlw	1
  2722     00C7  1903               	skipnz
  2723     00C8  28CA               	goto	u4301
  2724     00C9  07BA               	addwf	___flmul@grs+1,f
  2725     00CA                     u4301:
  2726     00CA  0834               	movf	??___flmul+2,w
  2727     00CB  1103               	clrz
  2728     00CC  1803               	skipnc
  2729     00CD  3E01               	addlw	1
  2730     00CE  1903               	skipnz
  2731     00CF  28D1               	goto	u4302
  2732     00D0  07BB               	addwf	___flmul@grs+2,f
  2733     00D1                     u4302:
  2734     00D1  0835               	movf	??___flmul+3,w
  2735     00D2  1103               	clrz
  2736     00D3  1803               	skipnc
  2737     00D4  3E01               	addlw	1
  2738     00D5  1903               	skipnz
  2739     00D6  28D8               	goto	u4303
  2740     00D7  07BC               	addwf	___flmul@grs+3,f
  2741     00D8                     u4303:
  2742     00D8                     l2991:
  2743     00D8  0843               	movf	___flmul@temp+1,w
  2744     00D9  00B2               	movwf	??___flmul
  2745     00DA  01B3               	clrf	??___flmul+1
  2746     00DB  01B4               	clrf	??___flmul+2
  2747     00DC  01B5               	clrf	??___flmul+3
  2748     00DD  0832               	movf	??___flmul,w
  2749     00DE  07BE               	addwf	___flmul@prod,f
  2750     00DF  0833               	movf	??___flmul+1,w
  2751     00E0  1103               	clrz
  2752     00E1  1803               	skipnc
  2753     00E2  3E01               	addlw	1
  2754     00E3  1903               	skipnz
  2755     00E4  28E6               	goto	u4311
  2756     00E5  07BF               	addwf	___flmul@prod+1,f
  2757     00E6                     u4311:
  2758     00E6  0834               	movf	??___flmul+2,w
  2759     00E7  1103               	clrz
  2760     00E8  1803               	skipnc
  2761     00E9  3E01               	addlw	1
  2762     00EA  1903               	skipnz
  2763     00EB  28ED               	goto	u4312
  2764     00EC  07C0               	addwf	___flmul@prod+2,f
  2765     00ED                     u4312:
  2766     00ED  0835               	movf	??___flmul+3,w
  2767     00EE  1103               	clrz
  2768     00EF  1803               	skipnc
  2769     00F0  3E01               	addlw	1
  2770     00F1  1903               	skipnz
  2771     00F2  28F4               	goto	u4313
  2772     00F3  07C1               	addwf	___flmul@prod+3,f
  2773     00F4                     u4313:
  2774     00F4  082C               	movf	___flmul@b+2,w
  2775     00F5  00F4               	movwf	__Umul8_16@multiplicand
  2776     00F6  082E               	movf	___flmul@a,w
  2777     00F7  120A  158A  23DF  120A  118A  	fcall	__Umul8_16
  2778     00FC  0875               	movf	?__Umul8_16+1,w
  2779     00FD  1283               	bcf	3,5	;RP0=0, select bank0
  2780     00FE  1303               	bcf	3,6	;RP1=0, select bank0
  2781     00FF  00C3               	movwf	___flmul@temp+1
  2782     0100  0874               	movf	?__Umul8_16,w
  2783     0101  00C2               	movwf	___flmul@temp
  2784     0102                     l2993:
  2785     0102  0842               	movf	___flmul@temp,w
  2786     0103  00B2               	movwf	??___flmul
  2787     0104  01B3               	clrf	??___flmul+1
  2788     0105  01B4               	clrf	??___flmul+2
  2789     0106  01B5               	clrf	??___flmul+3
  2790     0107  0832               	movf	??___flmul,w
  2791     0108  07B9               	addwf	___flmul@grs,f
  2792     0109  0833               	movf	??___flmul+1,w
  2793     010A  1103               	clrz
  2794     010B  1803               	skipnc
  2795     010C  3E01               	addlw	1
  2796     010D  1903               	skipnz
  2797     010E  2910               	goto	u4321
  2798     010F  07BA               	addwf	___flmul@grs+1,f
  2799     0110                     u4321:
  2800     0110  0834               	movf	??___flmul+2,w
  2801     0111  1103               	clrz
  2802     0112  1803               	skipnc
  2803     0113  3E01               	addlw	1
  2804     0114  1903               	skipnz
  2805     0115  2917               	goto	u4322
  2806     0116  07BB               	addwf	___flmul@grs+2,f
  2807     0117                     u4322:
  2808     0117  0835               	movf	??___flmul+3,w
  2809     0118  1103               	clrz
  2810     0119  1803               	skipnc
  2811     011A  3E01               	addlw	1
  2812     011B  1903               	skipnz
  2813     011C  291E               	goto	u4323
  2814     011D  07BC               	addwf	___flmul@grs+3,f
  2815     011E                     u4323:
  2816     011E                     l2995:
  2817     011E  0843               	movf	___flmul@temp+1,w
  2818     011F  00B2               	movwf	??___flmul
  2819     0120  01B3               	clrf	??___flmul+1
  2820     0121  01B4               	clrf	??___flmul+2
  2821     0122  01B5               	clrf	??___flmul+3
  2822     0123  0832               	movf	??___flmul,w
  2823     0124  07BE               	addwf	___flmul@prod,f
  2824     0125  0833               	movf	??___flmul+1,w
  2825     0126  1103               	clrz
  2826     0127  1803               	skipnc
  2827     0128  3E01               	addlw	1
  2828     0129  1903               	skipnz
  2829     012A  292C               	goto	u4331
  2830     012B  07BF               	addwf	___flmul@prod+1,f
  2831     012C                     u4331:
  2832     012C  0834               	movf	??___flmul+2,w
  2833     012D  1103               	clrz
  2834     012E  1803               	skipnc
  2835     012F  3E01               	addlw	1
  2836     0130  1903               	skipnz
  2837     0131  2933               	goto	u4332
  2838     0132  07C0               	addwf	___flmul@prod+2,f
  2839     0133                     u4332:
  2840     0133  0835               	movf	??___flmul+3,w
  2841     0134  1103               	clrz
  2842     0135  1803               	skipnc
  2843     0136  3E01               	addlw	1
  2844     0137  1903               	skipnz
  2845     0138  293A               	goto	u4333
  2846     0139  07C1               	addwf	___flmul@prod+3,f
  2847     013A                     u4333:
  2848     013A                     l2997:
  2849     013A  3008               	movlw	8
  2850     013B  00B2               	movwf	??___flmul
  2851     013C                     u4345:
  2852     013C  1003               	clrc
  2853     013D  0DB9               	rlf	___flmul@grs,f
  2854     013E  0DBA               	rlf	___flmul@grs+1,f
  2855     013F  0DBB               	rlf	___flmul@grs+2,f
  2856     0140  0DBC               	rlf	___flmul@grs+3,f
  2857     0141  0BB2               	decfsz	??___flmul,f
  2858     0142  293C               	goto	u4345
  2859     0143                     l2999:
  2860     0143  082B               	movf	___flmul@b+1,w
  2861     0144  00F4               	movwf	__Umul8_16@multiplicand
  2862     0145  082E               	movf	___flmul@a,w
  2863     0146  120A  158A  23DF  120A  118A  	fcall	__Umul8_16
  2864     014B  0875               	movf	?__Umul8_16+1,w
  2865     014C  1283               	bcf	3,5	;RP0=0, select bank0
  2866     014D  1303               	bcf	3,6	;RP1=0, select bank0
  2867     014E  00C3               	movwf	___flmul@temp+1
  2868     014F  0874               	movf	?__Umul8_16,w
  2869     0150  00C2               	movwf	___flmul@temp
  2870     0151                     l3001:
  2871     0151  0842               	movf	___flmul@temp,w
  2872     0152  00B2               	movwf	??___flmul
  2873     0153  0843               	movf	___flmul@temp+1,w
  2874     0154  00B3               	movwf	??___flmul+1
  2875     0155  01B4               	clrf	??___flmul+2
  2876     0156  01B5               	clrf	??___flmul+3
  2877     0157  0832               	movf	??___flmul,w
  2878     0158  07B9               	addwf	___flmul@grs,f
  2879     0159  0833               	movf	??___flmul+1,w
  2880     015A  1103               	clrz
  2881     015B  1803               	skipnc
  2882     015C  3E01               	addlw	1
  2883     015D  1903               	skipnz
  2884     015E  2960               	goto	u4351
  2885     015F  07BA               	addwf	___flmul@grs+1,f
  2886     0160                     u4351:
  2887     0160  0834               	movf	??___flmul+2,w
  2888     0161  1103               	clrz
  2889     0162  1803               	skipnc
  2890     0163  3E01               	addlw	1
  2891     0164  1903               	skipnz
  2892     0165  2967               	goto	u4352
  2893     0166  07BB               	addwf	___flmul@grs+2,f
  2894     0167                     u4352:
  2895     0167  0835               	movf	??___flmul+3,w
  2896     0168  1103               	clrz
  2897     0169  1803               	skipnc
  2898     016A  3E01               	addlw	1
  2899     016B  1903               	skipnz
  2900     016C  296E               	goto	u4353
  2901     016D  07BC               	addwf	___flmul@grs+3,f
  2902     016E                     u4353:
  2903     016E                     l3003:
  2904     016E  082A               	movf	___flmul@b,w
  2905     016F  00F4               	movwf	__Umul8_16@multiplicand
  2906     0170  082F               	movf	___flmul@a+1,w
  2907     0171  120A  158A  23DF  120A  118A  	fcall	__Umul8_16
  2908     0176  0875               	movf	?__Umul8_16+1,w
  2909     0177  1283               	bcf	3,5	;RP0=0, select bank0
  2910     0178  1303               	bcf	3,6	;RP1=0, select bank0
  2911     0179  00C3               	movwf	___flmul@temp+1
  2912     017A  0874               	movf	?__Umul8_16,w
  2913     017B  00C2               	movwf	___flmul@temp
  2914     017C                     l3005:
  2915     017C  0842               	movf	___flmul@temp,w
  2916     017D  00B2               	movwf	??___flmul
  2917     017E  0843               	movf	___flmul@temp+1,w
  2918     017F  00B3               	movwf	??___flmul+1
  2919     0180  01B4               	clrf	??___flmul+2
  2920     0181  01B5               	clrf	??___flmul+3
  2921     0182  0832               	movf	??___flmul,w
  2922     0183  07B9               	addwf	___flmul@grs,f
  2923     0184  0833               	movf	??___flmul+1,w
  2924     0185  1103               	clrz
  2925     0186  1803               	skipnc
  2926     0187  3E01               	addlw	1
  2927     0188  1903               	skipnz
  2928     0189  298B               	goto	u4361
  2929     018A  07BA               	addwf	___flmul@grs+1,f
  2930     018B                     u4361:
  2931     018B  0834               	movf	??___flmul+2,w
  2932     018C  1103               	clrz
  2933     018D  1803               	skipnc
  2934     018E  3E01               	addlw	1
  2935     018F  1903               	skipnz
  2936     0190  2992               	goto	u4362
  2937     0191  07BB               	addwf	___flmul@grs+2,f
  2938     0192                     u4362:
  2939     0192  0835               	movf	??___flmul+3,w
  2940     0193  1103               	clrz
  2941     0194  1803               	skipnc
  2942     0195  3E01               	addlw	1
  2943     0196  1903               	skipnz
  2944     0197  2999               	goto	u4363
  2945     0198  07BC               	addwf	___flmul@grs+3,f
  2946     0199                     u4363:
  2947     0199                     l3007:
  2948     0199  3008               	movlw	8
  2949     019A  00B2               	movwf	??___flmul
  2950     019B                     u4375:
  2951     019B  1003               	clrc
  2952     019C  0DB9               	rlf	___flmul@grs,f
  2953     019D  0DBA               	rlf	___flmul@grs+1,f
  2954     019E  0DBB               	rlf	___flmul@grs+2,f
  2955     019F  0DBC               	rlf	___flmul@grs+3,f
  2956     01A0  0BB2               	decfsz	??___flmul,f
  2957     01A1  299B               	goto	u4375
  2958     01A2  082A               	movf	___flmul@b,w
  2959     01A3  00F4               	movwf	__Umul8_16@multiplicand
  2960     01A4  082E               	movf	___flmul@a,w
  2961     01A5  120A  158A  23DF  120A  118A  	fcall	__Umul8_16
  2962     01AA  0875               	movf	?__Umul8_16+1,w
  2963     01AB  1283               	bcf	3,5	;RP0=0, select bank0
  2964     01AC  1303               	bcf	3,6	;RP1=0, select bank0
  2965     01AD  00C3               	movwf	___flmul@temp+1
  2966     01AE  0874               	movf	?__Umul8_16,w
  2967     01AF  00C2               	movwf	___flmul@temp
  2968     01B0                     l3009:
  2969     01B0  0842               	movf	___flmul@temp,w
  2970     01B1  00B2               	movwf	??___flmul
  2971     01B2  0843               	movf	___flmul@temp+1,w
  2972     01B3  00B3               	movwf	??___flmul+1
  2973     01B4  01B4               	clrf	??___flmul+2
  2974     01B5  01B5               	clrf	??___flmul+3
  2975     01B6  0832               	movf	??___flmul,w
  2976     01B7  07B9               	addwf	___flmul@grs,f
  2977     01B8  0833               	movf	??___flmul+1,w
  2978     01B9  1103               	clrz
  2979     01BA  1803               	skipnc
  2980     01BB  3E01               	addlw	1
  2981     01BC  1903               	skipnz
  2982     01BD  29BF               	goto	u4381
  2983     01BE  07BA               	addwf	___flmul@grs+1,f
  2984     01BF                     u4381:
  2985     01BF  0834               	movf	??___flmul+2,w
  2986     01C0  1103               	clrz
  2987     01C1  1803               	skipnc
  2988     01C2  3E01               	addlw	1
  2989     01C3  1903               	skipnz
  2990     01C4  29C6               	goto	u4382
  2991     01C5  07BB               	addwf	___flmul@grs+2,f
  2992     01C6                     u4382:
  2993     01C6  0835               	movf	??___flmul+3,w
  2994     01C7  1103               	clrz
  2995     01C8  1803               	skipnc
  2996     01C9  3E01               	addlw	1
  2997     01CA  1903               	skipnz
  2998     01CB  29CD               	goto	u4383
  2999     01CC  07BC               	addwf	___flmul@grs+3,f
  3000     01CD                     u4383:
  3001     01CD                     l3011:
  3002     01CD  082B               	movf	___flmul@b+1,w
  3003     01CE  00F4               	movwf	__Umul8_16@multiplicand
  3004     01CF  0830               	movf	___flmul@a+2,w
  3005     01D0  120A  158A  23DF  120A  118A  	fcall	__Umul8_16
  3006     01D5  0875               	movf	?__Umul8_16+1,w
  3007     01D6  1283               	bcf	3,5	;RP0=0, select bank0
  3008     01D7  1303               	bcf	3,6	;RP1=0, select bank0
  3009     01D8  00C3               	movwf	___flmul@temp+1
  3010     01D9  0874               	movf	?__Umul8_16,w
  3011     01DA  00C2               	movwf	___flmul@temp
  3012     01DB  0842               	movf	___flmul@temp,w
  3013     01DC  00B2               	movwf	??___flmul
  3014     01DD  0843               	movf	___flmul@temp+1,w
  3015     01DE  00B3               	movwf	??___flmul+1
  3016     01DF  01B4               	clrf	??___flmul+2
  3017     01E0  01B5               	clrf	??___flmul+3
  3018     01E1  0832               	movf	??___flmul,w
  3019     01E2  07BE               	addwf	___flmul@prod,f
  3020     01E3  0833               	movf	??___flmul+1,w
  3021     01E4  1103               	clrz
  3022     01E5  1803               	skipnc
  3023     01E6  3E01               	addlw	1
  3024     01E7  1903               	skipnz
  3025     01E8  29EA               	goto	u4391
  3026     01E9  07BF               	addwf	___flmul@prod+1,f
  3027     01EA                     u4391:
  3028     01EA  0834               	movf	??___flmul+2,w
  3029     01EB  1103               	clrz
  3030     01EC  1803               	skipnc
  3031     01ED  3E01               	addlw	1
  3032     01EE  1903               	skipnz
  3033     01EF  29F1               	goto	u4392
  3034     01F0  07C0               	addwf	___flmul@prod+2,f
  3035     01F1                     u4392:
  3036     01F1  0835               	movf	??___flmul+3,w
  3037     01F2  1103               	clrz
  3038     01F3  1803               	skipnc
  3039     01F4  3E01               	addlw	1
  3040     01F5  1903               	skipnz
  3041     01F6  29F8               	goto	u4393
  3042     01F7  07C1               	addwf	___flmul@prod+3,f
  3043     01F8                     u4393:
  3044     01F8                     l3013:
  3045     01F8  082C               	movf	___flmul@b+2,w
  3046     01F9  00F4               	movwf	__Umul8_16@multiplicand
  3047     01FA  082F               	movf	___flmul@a+1,w
  3048     01FB  120A  158A  23DF  120A  118A  	fcall	__Umul8_16
  3049     0200  0875               	movf	?__Umul8_16+1,w
  3050     0201  1283               	bcf	3,5	;RP0=0, select bank0
  3051     0202  1303               	bcf	3,6	;RP1=0, select bank0
  3052     0203  00C3               	movwf	___flmul@temp+1
  3053     0204  0874               	movf	?__Umul8_16,w
  3054     0205  00C2               	movwf	___flmul@temp
  3055     0206                     l3015:
  3056     0206  0842               	movf	___flmul@temp,w
  3057     0207  00B2               	movwf	??___flmul
  3058     0208  0843               	movf	___flmul@temp+1,w
  3059     0209  00B3               	movwf	??___flmul+1
  3060     020A  01B4               	clrf	??___flmul+2
  3061     020B  01B5               	clrf	??___flmul+3
  3062     020C  0832               	movf	??___flmul,w
  3063     020D  07BE               	addwf	___flmul@prod,f
  3064     020E  0833               	movf	??___flmul+1,w
  3065     020F  1103               	clrz
  3066     0210  1803               	skipnc
  3067     0211  3E01               	addlw	1
  3068     0212  1903               	skipnz
  3069     0213  2A15               	goto	u4401
  3070     0214  07BF               	addwf	___flmul@prod+1,f
  3071     0215                     u4401:
  3072     0215  0834               	movf	??___flmul+2,w
  3073     0216  1103               	clrz
  3074     0217  1803               	skipnc
  3075     0218  3E01               	addlw	1
  3076     0219  1903               	skipnz
  3077     021A  2A1C               	goto	u4402
  3078     021B  07C0               	addwf	___flmul@prod+2,f
  3079     021C                     u4402:
  3080     021C  0835               	movf	??___flmul+3,w
  3081     021D  1103               	clrz
  3082     021E  1803               	skipnc
  3083     021F  3E01               	addlw	1
  3084     0220  1903               	skipnz
  3085     0221  2A23               	goto	u4403
  3086     0222  07C1               	addwf	___flmul@prod+3,f
  3087     0223                     u4403:
  3088     0223  082C               	movf	___flmul@b+2,w
  3089     0224  00F4               	movwf	__Umul8_16@multiplicand
  3090     0225  0830               	movf	___flmul@a+2,w
  3091     0226  120A  158A  23DF  120A  118A  	fcall	__Umul8_16
  3092     022B  0875               	movf	?__Umul8_16+1,w
  3093     022C  1283               	bcf	3,5	;RP0=0, select bank0
  3094     022D  1303               	bcf	3,6	;RP1=0, select bank0
  3095     022E  00C3               	movwf	___flmul@temp+1
  3096     022F  0874               	movf	?__Umul8_16,w
  3097     0230  00C2               	movwf	___flmul@temp
  3098     0231                     l3017:
  3099     0231  0842               	movf	___flmul@temp,w
  3100     0232  00B2               	movwf	??___flmul
  3101     0233  0843               	movf	___flmul@temp+1,w
  3102     0234  00B3               	movwf	??___flmul+1
  3103     0235  01B4               	clrf	??___flmul+2
  3104     0236  01B5               	clrf	??___flmul+3
  3105     0237  3008               	movlw	8
  3106     0238                     u4415:
  3107     0238  1003               	clrc
  3108     0239  0DB2               	rlf	??___flmul,f
  3109     023A  0DB3               	rlf	??___flmul+1,f
  3110     023B  0DB4               	rlf	??___flmul+2,f
  3111     023C  0DB5               	rlf	??___flmul+3,f
  3112     023D                     u4410:
  3113     023D  3EFF               	addlw	-1
  3114     023E  1D03               	skipz
  3115     023F  2A38               	goto	u4415
  3116     0240  0832               	movf	??___flmul,w
  3117     0241  07BE               	addwf	___flmul@prod,f
  3118     0242  0833               	movf	??___flmul+1,w
  3119     0243  1103               	clrz
  3120     0244  1803               	skipnc
  3121     0245  3E01               	addlw	1
  3122     0246  1903               	skipnz
  3123     0247  2A49               	goto	u4421
  3124     0248  07BF               	addwf	___flmul@prod+1,f
  3125     0249                     u4421:
  3126     0249  0834               	movf	??___flmul+2,w
  3127     024A  1103               	clrz
  3128     024B  1803               	skipnc
  3129     024C  3E01               	addlw	1
  3130     024D  1903               	skipnz
  3131     024E  2A50               	goto	u4422
  3132     024F  07C0               	addwf	___flmul@prod+2,f
  3133     0250                     u4422:
  3134     0250  0835               	movf	??___flmul+3,w
  3135     0251  1103               	clrz
  3136     0252  1803               	skipnc
  3137     0253  3E01               	addlw	1
  3138     0254  1903               	skipnz
  3139     0255  2A57               	goto	u4423
  3140     0256  07C1               	addwf	___flmul@prod+3,f
  3141     0257                     u4423:
  3142     0257                     l3019:
  3143     0257  0839               	movf	___flmul@grs,w
  3144     0258  00B2               	movwf	??___flmul
  3145     0259  083A               	movf	___flmul@grs+1,w
  3146     025A  00B3               	movwf	??___flmul+1
  3147     025B  083B               	movf	___flmul@grs+2,w
  3148     025C  00B4               	movwf	??___flmul+2
  3149     025D  083C               	movf	___flmul@grs+3,w
  3150     025E  00B5               	movwf	??___flmul+3
  3151     025F  3018               	movlw	24
  3152     0260                     u4435:
  3153     0260  1003               	clrc
  3154     0261  0CB5               	rrf	??___flmul+3,f
  3155     0262  0CB4               	rrf	??___flmul+2,f
  3156     0263  0CB3               	rrf	??___flmul+1,f
  3157     0264  0CB2               	rrf	??___flmul,f
  3158     0265                     u4430:
  3159     0265  3EFF               	addlw	-1
  3160     0266  1D03               	skipz
  3161     0267  2A60               	goto	u4435
  3162     0268  0832               	movf	??___flmul,w
  3163     0269  07BE               	addwf	___flmul@prod,f
  3164     026A  0833               	movf	??___flmul+1,w
  3165     026B  1103               	clrz
  3166     026C  1803               	skipnc
  3167     026D  3E01               	addlw	1
  3168     026E  1903               	skipnz
  3169     026F  2A71               	goto	u4441
  3170     0270  07BF               	addwf	___flmul@prod+1,f
  3171     0271                     u4441:
  3172     0271  0834               	movf	??___flmul+2,w
  3173     0272  1103               	clrz
  3174     0273  1803               	skipnc
  3175     0274  3E01               	addlw	1
  3176     0275  1903               	skipnz
  3177     0276  2A78               	goto	u4442
  3178     0277  07C0               	addwf	___flmul@prod+2,f
  3179     0278                     u4442:
  3180     0278  0835               	movf	??___flmul+3,w
  3181     0279  1103               	clrz
  3182     027A  1803               	skipnc
  3183     027B  3E01               	addlw	1
  3184     027C  1903               	skipnz
  3185     027D  2A7F               	goto	u4443
  3186     027E  07C1               	addwf	___flmul@prod+3,f
  3187     027F                     u4443:
  3188     027F                     l3021:
  3189     027F  3008               	movlw	8
  3190     0280  00B2               	movwf	??___flmul
  3191     0281                     u4455:
  3192     0281  1003               	clrc
  3193     0282  0DB9               	rlf	___flmul@grs,f
  3194     0283  0DBA               	rlf	___flmul@grs+1,f
  3195     0284  0DBB               	rlf	___flmul@grs+2,f
  3196     0285  0DBC               	rlf	___flmul@grs+3,f
  3197     0286  0BB2               	decfsz	??___flmul,f
  3198     0287  2A81               	goto	u4455
  3199     0288                     l3023:
  3200     0288  083D               	movf	___flmul@bexp,w
  3201     0289  0738               	addwf	___flmul@aexp,w
  3202     028A  00B2               	movwf	??___flmul
  3203     028B  01B3               	clrf	??___flmul+1
  3204     028C  0DB3               	rlf	??___flmul+1,f
  3205     028D  0832               	movf	??___flmul,w
  3206     028E  3E82               	addlw	130
  3207     028F  00C2               	movwf	___flmul@temp
  3208     0290  0833               	movf	??___flmul+1,w
  3209     0291  1803               	skipnc
  3210     0292  3E01               	addlw	1
  3211     0293  3EFF               	addlw	255
  3212     0294  00C3               	movwf	___flmul@temp+1
  3213     0295  2AB3               	goto	l3035
  3214     0296                     l3025:
  3215     0296  3001               	movlw	1
  3216     0297  00B2               	movwf	??___flmul
  3217     0298                     u4465:
  3218     0298  1003               	clrc
  3219     0299  0DBE               	rlf	___flmul@prod,f
  3220     029A  0DBF               	rlf	___flmul@prod+1,f
  3221     029B  0DC0               	rlf	___flmul@prod+2,f
  3222     029C  0DC1               	rlf	___flmul@prod+3,f
  3223     029D  0BB2               	decfsz	??___flmul,f
  3224     029E  2A98               	goto	u4465
  3225     029F                     l3027:
  3226     029F  1FBC               	btfss	___flmul@grs+3,7
  3227     02A0  2AA2               	goto	u4471
  3228     02A1  2AA3               	goto	u4470
  3229     02A2                     u4471:
  3230     02A2  2AA4               	goto	l3031
  3231     02A3                     u4470:
  3232     02A3                     l3029:
  3233     02A3  143E               	bsf	___flmul@prod,0
  3234     02A4                     l3031:
  3235     02A4  3001               	movlw	1
  3236     02A5  00B2               	movwf	??___flmul
  3237     02A6                     u4485:
  3238     02A6  1003               	clrc
  3239     02A7  0DB9               	rlf	___flmul@grs,f
  3240     02A8  0DBA               	rlf	___flmul@grs+1,f
  3241     02A9  0DBB               	rlf	___flmul@grs+2,f
  3242     02AA  0DBC               	rlf	___flmul@grs+3,f
  3243     02AB  0BB2               	decfsz	??___flmul,f
  3244     02AC  2AA6               	goto	u4485
  3245     02AD                     l3033:
  3246     02AD  30FF               	movlw	255
  3247     02AE  07C2               	addwf	___flmul@temp,f
  3248     02AF  1803               	skipnc
  3249     02B0  0AC3               	incf	___flmul@temp+1,f
  3250     02B1  30FF               	movlw	255
  3251     02B2  07C3               	addwf	___flmul@temp+1,f
  3252     02B3                     l3035:
  3253     02B3  1FC0               	btfss	___flmul@prod+2,7
  3254     02B4  2AB6               	goto	u4491
  3255     02B5  2AB7               	goto	u4490
  3256     02B6                     u4491:
  3257     02B6  2A96               	goto	l3025
  3258     02B7                     u4490:
  3259     02B7                     l3037:
  3260     02B7  01B8               	clrf	___flmul@aexp
  3261     02B8                     l3039:
  3262     02B8  1FBC               	btfss	___flmul@grs+3,7
  3263     02B9  2ABB               	goto	u4501
  3264     02BA  2ABC               	goto	u4500
  3265     02BB                     u4501:
  3266     02BB  2AD8               	goto	l3047
  3267     02BC                     u4500:
  3268     02BC                     l3041:
  3269     02BC  30FF               	movlw	255
  3270     02BD  0539               	andwf	___flmul@grs,w
  3271     02BE  00B2               	movwf	??___flmul
  3272     02BF  30FF               	movlw	255
  3273     02C0  053A               	andwf	___flmul@grs+1,w
  3274     02C1  00B3               	movwf	??___flmul+1
  3275     02C2  30FF               	movlw	255
  3276     02C3  053B               	andwf	___flmul@grs+2,w
  3277     02C4  00B4               	movwf	??___flmul+2
  3278     02C5  307F               	movlw	127
  3279     02C6  053C               	andwf	___flmul@grs+3,w
  3280     02C7  00B5               	movwf	??___flmul+3
  3281     02C8  0835               	movf	??___flmul+3,w
  3282     02C9  0434               	iorwf	??___flmul+2,w
  3283     02CA  0433               	iorwf	??___flmul+1,w
  3284     02CB  0432               	iorwf	??___flmul,w
  3285     02CC  1903               	skipnz
  3286     02CD  2ACF               	goto	u4511
  3287     02CE  2AD0               	goto	u4510
  3288     02CF                     u4511:
  3289     02CF  2AD3               	goto	l716
  3290     02D0                     u4510:
  3291     02D0                     l3043:
  3292     02D0  3001               	movlw	1
  3293     02D1  00B8               	movwf	___flmul@aexp
  3294     02D2  2AD8               	goto	l3047
  3295     02D3                     l716:
  3296     02D3  1C3E               	btfss	___flmul@prod,0
  3297     02D4  2AD6               	goto	u4521
  3298     02D5  2AD7               	goto	u4520
  3299     02D6                     u4521:
  3300     02D6  2AD8               	goto	l3047
  3301     02D7                     u4520:
  3302     02D7  2AD0               	goto	l3043
  3303     02D8                     l3047:
  3304     02D8  0838               	movf	___flmul@aexp,w
  3305     02D9  1903               	btfsc	3,2
  3306     02DA  2ADC               	goto	u4531
  3307     02DB  2ADD               	goto	u4530
  3308     02DC                     u4531:
  3309     02DC  2B0E               	goto	l3057
  3310     02DD                     u4530:
  3311     02DD                     l3049:
  3312     02DD  3001               	movlw	1
  3313     02DE  07BE               	addwf	___flmul@prod,f
  3314     02DF  3000               	movlw	0
  3315     02E0  1803               	skipnc
  3316     02E1  3001               	movlw	1
  3317     02E2  07BF               	addwf	___flmul@prod+1,f
  3318     02E3  3000               	movlw	0
  3319     02E4  1803               	skipnc
  3320     02E5  3001               	movlw	1
  3321     02E6  07C0               	addwf	___flmul@prod+2,f
  3322     02E7  3000               	movlw	0
  3323     02E8  1803               	skipnc
  3324     02E9  3001               	movlw	1
  3325     02EA  07C1               	addwf	___flmul@prod+3,f
  3326     02EB                     l3051:
  3327     02EB  1C41               	btfss	___flmul@prod+3,0
  3328     02EC  2AEE               	goto	u4541
  3329     02ED  2AEF               	goto	u4540
  3330     02EE                     u4541:
  3331     02EE  2B0E               	goto	l3057
  3332     02EF                     u4540:
  3333     02EF                     l3053:
  3334     02EF  083E               	movf	___flmul@prod,w
  3335     02F0  00B2               	movwf	??___flmul
  3336     02F1  083F               	movf	___flmul@prod+1,w
  3337     02F2  00B3               	movwf	??___flmul+1
  3338     02F3  0840               	movf	___flmul@prod+2,w
  3339     02F4  00B4               	movwf	??___flmul+2
  3340     02F5  0841               	movf	___flmul@prod+3,w
  3341     02F6  00B5               	movwf	??___flmul+3
  3342     02F7  3001               	movlw	1
  3343     02F8  00B6               	movwf	??___flmul+4
  3344     02F9                     u4555:
  3345     02F9  0D35               	rlf	??___flmul+3,w
  3346     02FA  0CB5               	rrf	??___flmul+3,f
  3347     02FB  0CB4               	rrf	??___flmul+2,f
  3348     02FC  0CB3               	rrf	??___flmul+1,f
  3349     02FD  0CB2               	rrf	??___flmul,f
  3350     02FE                     u4550:
  3351     02FE  0BB6               	decfsz	??___flmul+4,f
  3352     02FF  2AF9               	goto	u4555
  3353     0300  0835               	movf	??___flmul+3,w
  3354     0301  00C1               	movwf	___flmul@prod+3
  3355     0302  0834               	movf	??___flmul+2,w
  3356     0303  00C0               	movwf	___flmul@prod+2
  3357     0304  0833               	movf	??___flmul+1,w
  3358     0305  00BF               	movwf	___flmul@prod+1
  3359     0306  0832               	movf	??___flmul,w
  3360     0307  00BE               	movwf	___flmul@prod
  3361     0308                     l3055:
  3362     0308  3001               	movlw	1
  3363     0309  07C2               	addwf	___flmul@temp,f
  3364     030A  1803               	skipnc
  3365     030B  0AC3               	incf	___flmul@temp+1,f
  3366     030C  3000               	movlw	0
  3367     030D  07C3               	addwf	___flmul@temp+1,f
  3368     030E                     l3057:
  3369     030E  0843               	movf	___flmul@temp+1,w
  3370     030F  3A80               	xorlw	128
  3371     0310  00FF               	movwf	btemp+1
  3372     0311  3080               	movlw	128
  3373     0312  027F               	subwf	btemp+1,w
  3374     0313  1D03               	skipz
  3375     0314  2B17               	goto	u4565
  3376     0315  30FF               	movlw	255
  3377     0316  0242               	subwf	___flmul@temp,w
  3378     0317                     u4565:
  3379     0317  1C03               	skipc
  3380     0318  2B1A               	goto	u4561
  3381     0319  2B1B               	goto	u4560
  3382     031A                     u4561:
  3383     031A  2B26               	goto	l3061
  3384     031B                     u4560:
  3385     031B                     l3059:
  3386     031B  307F               	movlw	127
  3387     031C  1283               	bcf	3,5	;RP0=0, select bank0
  3388     031D  1303               	bcf	3,6	;RP1=0, select bank0
  3389     031E  00C1               	movwf	___flmul@prod+3
  3390     031F  3080               	movlw	128
  3391     0320  00C0               	movwf	___flmul@prod+2
  3392     0321  3000               	movlw	0
  3393     0322  00BF               	movwf	___flmul@prod+1
  3394     0323  3000               	movlw	0
  3395     0324  00BE               	movwf	___flmul@prod
  3396     0325  2B57               	goto	l722
  3397     0326                     l3061:
  3398     0326  1283               	bcf	3,5	;RP0=0, select bank0
  3399     0327  1303               	bcf	3,6	;RP1=0, select bank0
  3400     0328  0843               	movf	___flmul@temp+1,w
  3401     0329  3A80               	xorlw	128
  3402     032A  00FF               	movwf	btemp+1
  3403     032B  3080               	movlw	128
  3404     032C  027F               	subwf	btemp+1,w
  3405     032D  1D03               	skipz
  3406     032E  2B31               	goto	u4575
  3407     032F  3001               	movlw	1
  3408     0330  0242               	subwf	___flmul@temp,w
  3409     0331                     u4575:
  3410     0331  1803               	skipnc
  3411     0332  2B34               	goto	u4571
  3412     0333  2B35               	goto	u4570
  3413     0334                     u4571:
  3414     0334  2B41               	goto	l3067
  3415     0335                     u4570:
  3416     0335                     l3063:
  3417     0335  3000               	movlw	0
  3418     0336  1283               	bcf	3,5	;RP0=0, select bank0
  3419     0337  1303               	bcf	3,6	;RP1=0, select bank0
  3420     0338  00C1               	movwf	___flmul@prod+3
  3421     0339  3000               	movlw	0
  3422     033A  00C0               	movwf	___flmul@prod+2
  3423     033B  3000               	movlw	0
  3424     033C  00BF               	movwf	___flmul@prod+1
  3425     033D  3000               	movlw	0
  3426     033E  00BE               	movwf	___flmul@prod
  3427     033F                     l3065:
  3428     033F  01B7               	clrf	___flmul@sign
  3429     0340  2B57               	goto	l722
  3430     0341                     l3067:
  3431     0341  1283               	bcf	3,5	;RP0=0, select bank0
  3432     0342  1303               	bcf	3,6	;RP1=0, select bank0
  3433     0343  0842               	movf	___flmul@temp,w
  3434     0344  00BD               	movwf	___flmul@bexp
  3435     0345  30FF               	movlw	255
  3436     0346  05BE               	andwf	___flmul@prod,f
  3437     0347  30FF               	movlw	255
  3438     0348  05BF               	andwf	___flmul@prod+1,f
  3439     0349  307F               	movlw	127
  3440     034A  05C0               	andwf	___flmul@prod+2,f
  3441     034B  3000               	movlw	0
  3442     034C  05C1               	andwf	___flmul@prod+3,f
  3443     034D                     l3069:
  3444     034D  1C3D               	btfss	___flmul@bexp,0
  3445     034E  2B50               	goto	u4581
  3446     034F  2B51               	goto	u4580
  3447     0350                     u4581:
  3448     0350  2B52               	goto	l3073
  3449     0351                     u4580:
  3450     0351                     l3071:
  3451     0351  17C0               	bsf	___flmul@prod+2,7
  3452     0352                     l3073:
  3453     0352  083D               	movf	___flmul@bexp,w
  3454     0353  00B2               	movwf	??___flmul
  3455     0354  1003               	clrc
  3456     0355  0C32               	rrf	??___flmul,w
  3457     0356  00C1               	movwf	___flmul@prod+3
  3458     0357                     l722:
  3459     0357  0837               	movf	___flmul@sign,w
  3460     0358  04C1               	iorwf	___flmul@prod+3,f
  3461     0359                     l3075:
  3462     0359  0841               	movf	___flmul@prod+3,w
  3463     035A  00AD               	movwf	?___flmul+3
  3464     035B  0840               	movf	___flmul@prod+2,w
  3465     035C  00AC               	movwf	?___flmul+2
  3466     035D  083F               	movf	___flmul@prod+1,w
  3467     035E  00AB               	movwf	?___flmul+1
  3468     035F  083E               	movf	___flmul@prod,w
  3469     0360  00AA               	movwf	?___flmul
  3470     0361                     l710:
  3471     0361  0008               	return
  3472     0362                     __end_of___flmul:
  3473                           
  3474                           	psect	text14
  3475     0BDF                     __ptext14:	
  3476 ;; *************** function __Umul8_16 *****************
  3477 ;; Defined at:
  3478 ;;		line 4 in file "C:\Program Files\Microchip\xc8\v3.00\pic\sources\c99\common\Umul8_16.c"
  3479 ;; Parameters:    Size  Location     Type
  3480 ;;  multiplier      1    wreg     unsigned char 
  3481 ;;  multiplicand    1    4[COMMON] unsigned char 
  3482 ;; Auto vars:     Size  Location     Type
  3483 ;;  multiplier      1    4[BANK0 ] unsigned char 
  3484 ;;  word_mpld       2    2[BANK0 ] unsigned short 
  3485 ;;  product         2    0[BANK0 ] unsigned short 
  3486 ;; Return value:  Size  Location     Type
  3487 ;;                  2    4[COMMON] unsigned int 
  3488 ;; Registers used:
  3489 ;;		wreg, status,2, status,0
  3490 ;; Tracked objects:
  3491 ;;		On entry : 0/0
  3492 ;;		On exit  : 0/0
  3493 ;;		Unchanged: 0/0
  3494 ;; Data sizes:     COMMON   BANK0   BANK1   BANK3   BANK2
  3495 ;;      Params:         2       0       0       0       0
  3496 ;;      Locals:         0       5       0       0       0
  3497 ;;      Temps:          2       0       0       0       0
  3498 ;;      Totals:         4       5       0       0       0
  3499 ;;Total ram usage:        9 bytes
  3500 ;; Hardware stack levels used: 1
  3501 ;; Hardware stack levels required when called: 1
  3502 ;; This function calls:
  3503 ;;		Nothing
  3504 ;; This function is called by:
  3505 ;;		___flmul
  3506 ;; This function uses a non-reentrant model
  3507 ;;
  3508                           
  3509     0BDF                     __Umul8_16:	
  3510                           ;psect for function __Umul8_16
  3511                           
  3512                           
  3513                           ;incstack = 0
  3514                           ; Regs used in __Umul8_16: [wreg+status,2+status,0]
  3515                           ;__Umul8_16@multiplier stored from wreg
  3516     0BDF  1283               	bcf	3,5	;RP0=0, select bank0
  3517     0BE0  1303               	bcf	3,6	;RP1=0, select bank0
  3518     0BE1  00A4               	movwf	__Umul8_16@multiplier
  3519     0BE2                     l2537:
  3520     0BE2  01A0               	clrf	__Umul8_16@product
  3521     0BE3  01A1               	clrf	__Umul8_16@product+1
  3522     0BE4                     l2539:
  3523     0BE4  0874               	movf	__Umul8_16@multiplicand,w
  3524     0BE5  00F6               	movwf	??__Umul8_16
  3525     0BE6  01F7               	clrf	??__Umul8_16+1
  3526     0BE7  0876               	movf	??__Umul8_16,w
  3527     0BE8  00A2               	movwf	__Umul8_16@word_mpld
  3528     0BE9  0877               	movf	??__Umul8_16+1,w
  3529     0BEA  00A3               	movwf	__Umul8_16@word_mpld+1
  3530     0BEB                     l2541:
  3531     0BEB  1C24               	btfss	__Umul8_16@multiplier,0
  3532     0BEC  2BEE               	goto	u3331
  3533     0BED  2BEF               	goto	u3330
  3534     0BEE                     u3331:
  3535     0BEE  2BF5               	goto	l729
  3536     0BEF                     u3330:
  3537     0BEF                     l2543:
  3538     0BEF  0822               	movf	__Umul8_16@word_mpld,w
  3539     0BF0  07A0               	addwf	__Umul8_16@product,f
  3540     0BF1  1803               	skipnc
  3541     0BF2  0AA1               	incf	__Umul8_16@product+1,f
  3542     0BF3  0823               	movf	__Umul8_16@word_mpld+1,w
  3543     0BF4  07A1               	addwf	__Umul8_16@product+1,f
  3544     0BF5                     l729:
  3545     0BF5  3001               	movlw	1
  3546     0BF6                     u3345:
  3547     0BF6  1003               	clrc
  3548     0BF7  0DA2               	rlf	__Umul8_16@word_mpld,f
  3549     0BF8  0DA3               	rlf	__Umul8_16@word_mpld+1,f
  3550     0BF9  3EFF               	addlw	-1
  3551     0BFA  1D03               	skipz
  3552     0BFB  2BF6               	goto	u3345
  3553     0BFC  1003               	clrc
  3554     0BFD  0CA4               	rrf	__Umul8_16@multiplier,f
  3555     0BFE                     l2545:
  3556     0BFE  0824               	movf	__Umul8_16@multiplier,w
  3557     0BFF  1D03               	btfss	3,2
  3558     0C00  2C02               	goto	u3351
  3559     0C01  2C03               	goto	u3350
  3560     0C02                     u3351:
  3561     0C02  2BEB               	goto	l2541
  3562     0C03                     u3350:
  3563     0C03                     l2547:
  3564     0C03  0821               	movf	__Umul8_16@product+1,w
  3565     0C04  00F5               	movwf	?__Umul8_16+1
  3566     0C05  0820               	movf	__Umul8_16@product,w
  3567     0C06  00F4               	movwf	?__Umul8_16
  3568     0C07                     l731:
  3569     0C07  0008               	return
  3570     0C08                     __end_of__Umul8_16:
  3571                           
  3572                           	psect	text15
  3573     0E36                     __ptext15:	
  3574 ;; *************** function ___fldiv *****************
  3575 ;; Defined at:
  3576 ;;		line 8 in file "C:\Program Files\Microchip\xc8\v3.00\pic\sources\c99\common\sprcdiv.c"
  3577 ;; Parameters:    Size  Location     Type
  3578 ;;  a               4   36[BANK0 ] unsigned int 
  3579 ;;  b               4   40[BANK0 ] unsigned int 
  3580 ;; Auto vars:     Size  Location     Type
  3581 ;;  grs             4   56[BANK0 ] unsigned long 
  3582 ;;  rem             4   49[BANK0 ] unsigned long 
  3583 ;;  new_exp         2   54[BANK0 ] short 
  3584 ;;  aexp            1   61[BANK0 ] unsigned char 
  3585 ;;  bexp            1   60[BANK0 ] unsigned char 
  3586 ;;  sign            1   53[BANK0 ] unsigned char 
  3587 ;; Return value:  Size  Location     Type
  3588 ;;                  4   36[BANK0 ] unsigned char 
  3589 ;; Registers used:
  3590 ;;		wreg, status,2, status,0, btemp+1
  3591 ;; Tracked objects:
  3592 ;;		On entry : 0/0
  3593 ;;		On exit  : 0/0
  3594 ;;		Unchanged: 0/0
  3595 ;; Data sizes:     COMMON   BANK0   BANK1   BANK3   BANK2
  3596 ;;      Params:         0       8       0       0       0
  3597 ;;      Locals:         0      13       0       0       0
  3598 ;;      Temps:          0       5       0       0       0
  3599 ;;      Totals:         0      26       0       0       0
  3600 ;;Total ram usage:       26 bytes
  3601 ;; Hardware stack levels used: 1
  3602 ;; Hardware stack levels required when called: 1
  3603 ;; This function calls:
  3604 ;;		Nothing
  3605 ;; This function is called by:
  3606 ;;		_comunicar_esp32_inicializar_usart
  3607 ;; This function uses a non-reentrant model
  3608 ;;
  3609                           
  3610     0E36                     ___fldiv:	
  3611                           ;psect for function ___fldiv
  3612                           
  3613     0E36                     l2793:	
  3614                           ;incstack = 0
  3615                           ; Regs used in ___fldiv: [wreg+status,2+status,0+btemp+1]
  3616                           
  3617     0E36  1283               	bcf	3,5	;RP0=0, select bank0
  3618     0E37  1303               	bcf	3,6	;RP1=0, select bank0
  3619     0E38  084B               	movf	___fldiv@b+3,w
  3620     0E39  00D5               	movwf	___fldiv@sign
  3621     0E3A                     l2795:
  3622     0E3A  3080               	movlw	128
  3623     0E3B  05D5               	andwf	___fldiv@sign,f
  3624     0E3C                     l2797:
  3625     0E3C  084B               	movf	___fldiv@b+3,w
  3626     0E3D  00CC               	movwf	??___fldiv
  3627     0E3E  074C               	addwf	??___fldiv,w
  3628     0E3F  00DC               	movwf	___fldiv@bexp
  3629     0E40                     l2799:
  3630     0E40  1FCA               	btfss	___fldiv@b+2,7
  3631     0E41  2E43               	goto	u3931
  3632     0E42  2E44               	goto	u3930
  3633     0E43                     u3931:
  3634     0E43  2E45               	goto	l2803
  3635     0E44                     u3930:
  3636     0E44                     l2801:
  3637     0E44  145C               	bsf	___fldiv@bexp,0
  3638     0E45                     l2803:
  3639     0E45  085C               	movf	___fldiv@bexp,w
  3640     0E46  1903               	btfsc	3,2
  3641     0E47  2E49               	goto	u3941
  3642     0E48  2E4A               	goto	u3940
  3643     0E49                     u3941:
  3644     0E49  2E5A               	goto	l2813
  3645     0E4A                     u3940:
  3646     0E4A                     l2805:
  3647     0E4A  0A5C               	incf	___fldiv@bexp,w
  3648     0E4B  1D03               	btfss	3,2
  3649     0E4C  2E4E               	goto	u3951
  3650     0E4D  2E4F               	goto	u3950
  3651     0E4E                     u3951:
  3652     0E4E  2E57               	goto	l2809
  3653     0E4F                     u3950:
  3654     0E4F                     l2807:
  3655     0E4F  3000               	movlw	0
  3656     0E50  00CB               	movwf	___fldiv@b+3
  3657     0E51  3000               	movlw	0
  3658     0E52  00CA               	movwf	___fldiv@b+2
  3659     0E53  3000               	movlw	0
  3660     0E54  00C9               	movwf	___fldiv@b+1
  3661     0E55  3000               	movlw	0
  3662     0E56  00C8               	movwf	___fldiv@b
  3663     0E57                     l2809:
  3664     0E57  17CA               	bsf	___fldiv@b+2,7
  3665     0E58                     l2811:
  3666     0E58  01CB               	clrf	___fldiv@b+3
  3667     0E59  2E62               	goto	l2815
  3668     0E5A                     l2813:
  3669     0E5A  3000               	movlw	0
  3670     0E5B  00CB               	movwf	___fldiv@b+3
  3671     0E5C  3000               	movlw	0
  3672     0E5D  00CA               	movwf	___fldiv@b+2
  3673     0E5E  3000               	movlw	0
  3674     0E5F  00C9               	movwf	___fldiv@b+1
  3675     0E60  3000               	movlw	0
  3676     0E61  00C8               	movwf	___fldiv@b
  3677     0E62                     l2815:
  3678     0E62  0847               	movf	___fldiv@a+3,w
  3679     0E63  3980               	andlw	128
  3680     0E64  06D5               	xorwf	___fldiv@sign,f
  3681     0E65                     l2817:
  3682     0E65  0847               	movf	___fldiv@a+3,w
  3683     0E66  00CC               	movwf	??___fldiv
  3684     0E67  074C               	addwf	??___fldiv,w
  3685     0E68  00DD               	movwf	___fldiv@aexp
  3686     0E69                     l2819:
  3687     0E69  1FC6               	btfss	___fldiv@a+2,7
  3688     0E6A  2E6C               	goto	u3961
  3689     0E6B  2E6D               	goto	u3960
  3690     0E6C                     u3961:
  3691     0E6C  2E6E               	goto	l2823
  3692     0E6D                     u3960:
  3693     0E6D                     l2821:
  3694     0E6D  145D               	bsf	___fldiv@aexp,0
  3695     0E6E                     l2823:
  3696     0E6E  085D               	movf	___fldiv@aexp,w
  3697     0E6F  1903               	btfsc	3,2
  3698     0E70  2E72               	goto	u3971
  3699     0E71  2E73               	goto	u3970
  3700     0E72                     u3971:
  3701     0E72  2E83               	goto	l2833
  3702     0E73                     u3970:
  3703     0E73                     l2825:
  3704     0E73  0A5D               	incf	___fldiv@aexp,w
  3705     0E74  1D03               	btfss	3,2
  3706     0E75  2E77               	goto	u3981
  3707     0E76  2E78               	goto	u3980
  3708     0E77                     u3981:
  3709     0E77  2E80               	goto	l2829
  3710     0E78                     u3980:
  3711     0E78                     l2827:
  3712     0E78  3000               	movlw	0
  3713     0E79  00C7               	movwf	___fldiv@a+3
  3714     0E7A  3000               	movlw	0
  3715     0E7B  00C6               	movwf	___fldiv@a+2
  3716     0E7C  3000               	movlw	0
  3717     0E7D  00C5               	movwf	___fldiv@a+1
  3718     0E7E  3000               	movlw	0
  3719     0E7F  00C4               	movwf	___fldiv@a
  3720     0E80                     l2829:
  3721     0E80  17C6               	bsf	___fldiv@a+2,7
  3722     0E81                     l2831:
  3723     0E81  01C7               	clrf	___fldiv@a+3
  3724     0E82  2E8B               	goto	l670
  3725     0E83                     l2833:
  3726     0E83  3000               	movlw	0
  3727     0E84  00C7               	movwf	___fldiv@a+3
  3728     0E85  3000               	movlw	0
  3729     0E86  00C6               	movwf	___fldiv@a+2
  3730     0E87  3000               	movlw	0
  3731     0E88  00C5               	movwf	___fldiv@a+1
  3732     0E89  3000               	movlw	0
  3733     0E8A  00C4               	movwf	___fldiv@a
  3734     0E8B                     l670:
  3735     0E8B  0847               	movf	___fldiv@a+3,w
  3736     0E8C  0446               	iorwf	___fldiv@a+2,w
  3737     0E8D  0445               	iorwf	___fldiv@a+1,w
  3738     0E8E  0444               	iorwf	___fldiv@a,w
  3739     0E8F  1D03               	skipz
  3740     0E90  2E92               	goto	u3991
  3741     0E91  2E93               	goto	u3990
  3742     0E92                     u3991:
  3743     0E92  2EAA               	goto	l2843
  3744     0E93                     u3990:
  3745     0E93                     l2835:
  3746     0E93  3000               	movlw	0
  3747     0E94  00CB               	movwf	___fldiv@b+3
  3748     0E95  3000               	movlw	0
  3749     0E96  00CA               	movwf	___fldiv@b+2
  3750     0E97  3000               	movlw	0
  3751     0E98  00C9               	movwf	___fldiv@b+1
  3752     0E99  3000               	movlw	0
  3753     0E9A  00C8               	movwf	___fldiv@b
  3754     0E9B  3080               	movlw	128
  3755     0E9C  04CA               	iorwf	___fldiv@b+2,f
  3756     0E9D  307F               	movlw	127
  3757     0E9E  04CB               	iorwf	___fldiv@b+3,f
  3758     0E9F                     l2837:
  3759     0E9F  0855               	movf	___fldiv@sign,w
  3760     0EA0  04CB               	iorwf	___fldiv@b+3,f
  3761     0EA1                     l2839:
  3762     0EA1  084B               	movf	___fldiv@b+3,w
  3763     0EA2  00C7               	movwf	?___fldiv+3
  3764     0EA3  084A               	movf	___fldiv@b+2,w
  3765     0EA4  00C6               	movwf	?___fldiv+2
  3766     0EA5  0849               	movf	___fldiv@b+1,w
  3767     0EA6  00C5               	movwf	?___fldiv+1
  3768     0EA7  0848               	movf	___fldiv@b,w
  3769     0EA8  00C4               	movwf	?___fldiv
  3770     0EA9  2FFF               	goto	l672
  3771     0EAA                     l2843:
  3772     0EAA  085C               	movf	___fldiv@bexp,w
  3773     0EAB  1D03               	btfss	3,2
  3774     0EAC  2EAE               	goto	u4001
  3775     0EAD  2EAF               	goto	u4000
  3776     0EAE                     u4001:
  3777     0EAE  2EB8               	goto	l2849
  3778     0EAF                     u4000:
  3779     0EAF                     l2845:
  3780     0EAF  3000               	movlw	0
  3781     0EB0  00C7               	movwf	?___fldiv+3
  3782     0EB1  3000               	movlw	0
  3783     0EB2  00C6               	movwf	?___fldiv+2
  3784     0EB3  3000               	movlw	0
  3785     0EB4  00C5               	movwf	?___fldiv+1
  3786     0EB5  3000               	movlw	0
  3787     0EB6  00C4               	movwf	?___fldiv
  3788     0EB7  2FFF               	goto	l672
  3789     0EB8                     l2849:
  3790     0EB8  085C               	movf	___fldiv@bexp,w
  3791     0EB9  00CC               	movwf	??___fldiv
  3792     0EBA  01CD               	clrf	??___fldiv+1
  3793     0EBB  084D               	movf	??___fldiv+1,w
  3794     0EBC  00CF               	movwf	??___fldiv+3
  3795     0EBD  085D               	movf	___fldiv@aexp,w
  3796     0EBE  024C               	subwf	??___fldiv,w
  3797     0EBF  00CE               	movwf	??___fldiv+2
  3798     0EC0  1C03               	skipc
  3799     0EC1  03CF               	decf	??___fldiv+3,f
  3800     0EC2  084E               	movf	??___fldiv+2,w
  3801     0EC3  3E7F               	addlw	127
  3802     0EC4  00D6               	movwf	___fldiv@new_exp
  3803     0EC5  084F               	movf	??___fldiv+3,w
  3804     0EC6  1803               	skipnc
  3805     0EC7  3E01               	addlw	1
  3806     0EC8  3E00               	addlw	0
  3807     0EC9  00D7               	movwf	___fldiv@new_exp+1
  3808     0ECA                     l2851:
  3809     0ECA  084B               	movf	___fldiv@b+3,w
  3810     0ECB  00D4               	movwf	___fldiv@rem+3
  3811     0ECC  084A               	movf	___fldiv@b+2,w
  3812     0ECD  00D3               	movwf	___fldiv@rem+2
  3813     0ECE  0849               	movf	___fldiv@b+1,w
  3814     0ECF  00D2               	movwf	___fldiv@rem+1
  3815     0ED0  0848               	movf	___fldiv@b,w
  3816     0ED1  00D1               	movwf	___fldiv@rem
  3817     0ED2                     l2853:
  3818     0ED2  3000               	movlw	0
  3819     0ED3  00CB               	movwf	___fldiv@b+3
  3820     0ED4  3000               	movlw	0
  3821     0ED5  00CA               	movwf	___fldiv@b+2
  3822     0ED6  3000               	movlw	0
  3823     0ED7  00C9               	movwf	___fldiv@b+1
  3824     0ED8  3000               	movlw	0
  3825     0ED9  00C8               	movwf	___fldiv@b
  3826     0EDA                     l2855:
  3827     0EDA  3000               	movlw	0
  3828     0EDB  00DB               	movwf	___fldiv@grs+3
  3829     0EDC  3000               	movlw	0
  3830     0EDD  00DA               	movwf	___fldiv@grs+2
  3831     0EDE  3000               	movlw	0
  3832     0EDF  00D9               	movwf	___fldiv@grs+1
  3833     0EE0  3000               	movlw	0
  3834     0EE1  00D8               	movwf	___fldiv@grs
  3835     0EE2                     l2857:
  3836     0EE2  01DD               	clrf	___fldiv@aexp
  3837     0EE3  2F2C               	goto	l2877
  3838     0EE4                     l2859:
  3839     0EE4  085D               	movf	___fldiv@aexp,w
  3840     0EE5  1903               	btfsc	3,2
  3841     0EE6  2EE8               	goto	u4011
  3842     0EE7  2EE9               	goto	u4010
  3843     0EE8                     u4011:
  3844     0EE8  2F09               	goto	l2869
  3845     0EE9                     u4010:
  3846     0EE9                     l2861:
  3847     0EE9  3001               	movlw	1
  3848     0EEA  00CC               	movwf	??___fldiv
  3849     0EEB                     u4025:
  3850     0EEB  1003               	clrc
  3851     0EEC  0DD1               	rlf	___fldiv@rem,f
  3852     0EED  0DD2               	rlf	___fldiv@rem+1,f
  3853     0EEE  0DD3               	rlf	___fldiv@rem+2,f
  3854     0EEF  0DD4               	rlf	___fldiv@rem+3,f
  3855     0EF0  0BCC               	decfsz	??___fldiv,f
  3856     0EF1  2EEB               	goto	u4025
  3857     0EF2  3001               	movlw	1
  3858     0EF3  00CC               	movwf	??___fldiv
  3859     0EF4                     u4035:
  3860     0EF4  1003               	clrc
  3861     0EF5  0DC8               	rlf	___fldiv@b,f
  3862     0EF6  0DC9               	rlf	___fldiv@b+1,f
  3863     0EF7  0DCA               	rlf	___fldiv@b+2,f
  3864     0EF8  0DCB               	rlf	___fldiv@b+3,f
  3865     0EF9  0BCC               	decfsz	??___fldiv,f
  3866     0EFA  2EF4               	goto	u4035
  3867     0EFB                     l2863:
  3868     0EFB  1FDB               	btfss	___fldiv@grs+3,7
  3869     0EFC  2EFE               	goto	u4041
  3870     0EFD  2EFF               	goto	u4040
  3871     0EFE                     u4041:
  3872     0EFE  2F00               	goto	l2867
  3873     0EFF                     u4040:
  3874     0EFF                     l2865:
  3875     0EFF  1448               	bsf	___fldiv@b,0
  3876     0F00                     l2867:
  3877     0F00  3001               	movlw	1
  3878     0F01  00CC               	movwf	??___fldiv
  3879     0F02                     u4055:
  3880     0F02  1003               	clrc
  3881     0F03  0DD8               	rlf	___fldiv@grs,f
  3882     0F04  0DD9               	rlf	___fldiv@grs+1,f
  3883     0F05  0DDA               	rlf	___fldiv@grs+2,f
  3884     0F06  0DDB               	rlf	___fldiv@grs+3,f
  3885     0F07  0BCC               	decfsz	??___fldiv,f
  3886     0F08  2F02               	goto	u4055
  3887     0F09                     l2869:
  3888     0F09  0847               	movf	___fldiv@a+3,w
  3889     0F0A  0254               	subwf	___fldiv@rem+3,w
  3890     0F0B  1D03               	skipz
  3891     0F0C  2F17               	goto	u4065
  3892     0F0D  0846               	movf	___fldiv@a+2,w
  3893     0F0E  0253               	subwf	___fldiv@rem+2,w
  3894     0F0F  1D03               	skipz
  3895     0F10  2F17               	goto	u4065
  3896     0F11  0845               	movf	___fldiv@a+1,w
  3897     0F12  0252               	subwf	___fldiv@rem+1,w
  3898     0F13  1D03               	skipz
  3899     0F14  2F17               	goto	u4065
  3900     0F15  0844               	movf	___fldiv@a,w
  3901     0F16  0251               	subwf	___fldiv@rem,w
  3902     0F17                     u4065:
  3903     0F17  1C03               	skipc
  3904     0F18  2F1A               	goto	u4061
  3905     0F19  2F1B               	goto	u4060
  3906     0F1A                     u4061:
  3907     0F1A  2F2A               	goto	l2875
  3908     0F1B                     u4060:
  3909     0F1B                     l2871:
  3910     0F1B  175B               	bsf	___fldiv@grs+3,6
  3911     0F1C                     l2873:
  3912     0F1C  0844               	movf	___fldiv@a,w
  3913     0F1D  02D1               	subwf	___fldiv@rem,f
  3914     0F1E  0845               	movf	___fldiv@a+1,w
  3915     0F1F  1C03               	skipc
  3916     0F20  0F45               	incfsz	___fldiv@a+1,w
  3917     0F21  02D2               	subwf	___fldiv@rem+1,f
  3918     0F22  0846               	movf	___fldiv@a+2,w
  3919     0F23  1C03               	skipc
  3920     0F24  0F46               	incfsz	___fldiv@a+2,w
  3921     0F25  02D3               	subwf	___fldiv@rem+2,f
  3922     0F26  0847               	movf	___fldiv@a+3,w
  3923     0F27  1C03               	skipc
  3924     0F28  0F47               	incfsz	___fldiv@a+3,w
  3925     0F29  02D4               	subwf	___fldiv@rem+3,f
  3926     0F2A                     l2875:
  3927     0F2A  3001               	movlw	1
  3928     0F2B  07DD               	addwf	___fldiv@aexp,f
  3929     0F2C                     l2877:
  3930     0F2C  301A               	movlw	26
  3931     0F2D  025D               	subwf	___fldiv@aexp,w
  3932     0F2E  1C03               	skipc
  3933     0F2F  2F31               	goto	u4071
  3934     0F30  2F32               	goto	u4070
  3935     0F31                     u4071:
  3936     0F31  2EE4               	goto	l2859
  3937     0F32                     u4070:
  3938     0F32                     l2879:
  3939     0F32  0854               	movf	___fldiv@rem+3,w
  3940     0F33  0453               	iorwf	___fldiv@rem+2,w
  3941     0F34  0452               	iorwf	___fldiv@rem+1,w
  3942     0F35  0451               	iorwf	___fldiv@rem,w
  3943     0F36  1903               	skipnz
  3944     0F37  2F39               	goto	u4081
  3945     0F38  2F3A               	goto	u4080
  3946     0F39                     u4081:
  3947     0F39  2F59               	goto	l2893
  3948     0F3A                     u4080:
  3949     0F3A                     l2881:
  3950     0F3A  1458               	bsf	___fldiv@grs,0
  3951     0F3B  2F59               	goto	l2893
  3952     0F3C                     l2883:
  3953     0F3C  3001               	movlw	1
  3954     0F3D  00CC               	movwf	??___fldiv
  3955     0F3E                     u4095:
  3956     0F3E  1003               	clrc
  3957     0F3F  0DC8               	rlf	___fldiv@b,f
  3958     0F40  0DC9               	rlf	___fldiv@b+1,f
  3959     0F41  0DCA               	rlf	___fldiv@b+2,f
  3960     0F42  0DCB               	rlf	___fldiv@b+3,f
  3961     0F43  0BCC               	decfsz	??___fldiv,f
  3962     0F44  2F3E               	goto	u4095
  3963     0F45                     l2885:
  3964     0F45  1FDB               	btfss	___fldiv@grs+3,7
  3965     0F46  2F48               	goto	u4101
  3966     0F47  2F49               	goto	u4100
  3967     0F48                     u4101:
  3968     0F48  2F4A               	goto	l2889
  3969     0F49                     u4100:
  3970     0F49                     l2887:
  3971     0F49  1448               	bsf	___fldiv@b,0
  3972     0F4A                     l2889:
  3973     0F4A  3001               	movlw	1
  3974     0F4B  00CC               	movwf	??___fldiv
  3975     0F4C                     u4115:
  3976     0F4C  1003               	clrc
  3977     0F4D  0DD8               	rlf	___fldiv@grs,f
  3978     0F4E  0DD9               	rlf	___fldiv@grs+1,f
  3979     0F4F  0DDA               	rlf	___fldiv@grs+2,f
  3980     0F50  0DDB               	rlf	___fldiv@grs+3,f
  3981     0F51  0BCC               	decfsz	??___fldiv,f
  3982     0F52  2F4C               	goto	u4115
  3983     0F53                     l2891:
  3984     0F53  30FF               	movlw	255
  3985     0F54  07D6               	addwf	___fldiv@new_exp,f
  3986     0F55  1803               	skipnc
  3987     0F56  0AD7               	incf	___fldiv@new_exp+1,f
  3988     0F57  30FF               	movlw	255
  3989     0F58  07D7               	addwf	___fldiv@new_exp+1,f
  3990     0F59                     l2893:
  3991     0F59  1FCA               	btfss	___fldiv@b+2,7
  3992     0F5A  2F5C               	goto	u4121
  3993     0F5B  2F5D               	goto	u4120
  3994     0F5C                     u4121:
  3995     0F5C  2F3C               	goto	l2883
  3996     0F5D                     u4120:
  3997     0F5D                     l2895:
  3998     0F5D  01DD               	clrf	___fldiv@aexp
  3999     0F5E                     l2897:
  4000     0F5E  1FDB               	btfss	___fldiv@grs+3,7
  4001     0F5F  2F61               	goto	u4131
  4002     0F60  2F62               	goto	u4130
  4003     0F61                     u4131:
  4004     0F61  2F7E               	goto	l2905
  4005     0F62                     u4130:
  4006     0F62                     l2899:
  4007     0F62  30FF               	movlw	255
  4008     0F63  0558               	andwf	___fldiv@grs,w
  4009     0F64  00CC               	movwf	??___fldiv
  4010     0F65  30FF               	movlw	255
  4011     0F66  0559               	andwf	___fldiv@grs+1,w
  4012     0F67  00CD               	movwf	??___fldiv+1
  4013     0F68  30FF               	movlw	255
  4014     0F69  055A               	andwf	___fldiv@grs+2,w
  4015     0F6A  00CE               	movwf	??___fldiv+2
  4016     0F6B  307F               	movlw	127
  4017     0F6C  055B               	andwf	___fldiv@grs+3,w
  4018     0F6D  00CF               	movwf	??___fldiv+3
  4019     0F6E  084F               	movf	??___fldiv+3,w
  4020     0F6F  044E               	iorwf	??___fldiv+2,w
  4021     0F70  044D               	iorwf	??___fldiv+1,w
  4022     0F71  044C               	iorwf	??___fldiv,w
  4023     0F72  1903               	skipnz
  4024     0F73  2F75               	goto	u4141
  4025     0F74  2F76               	goto	u4140
  4026     0F75                     u4141:
  4027     0F75  2F79               	goto	l686
  4028     0F76                     u4140:
  4029     0F76                     l2901:
  4030     0F76  3001               	movlw	1
  4031     0F77  00DD               	movwf	___fldiv@aexp
  4032     0F78  2F7E               	goto	l2905
  4033     0F79                     l686:
  4034     0F79  1C48               	btfss	___fldiv@b,0
  4035     0F7A  2F7C               	goto	u4151
  4036     0F7B  2F7D               	goto	u4150
  4037     0F7C                     u4151:
  4038     0F7C  2F7E               	goto	l2905
  4039     0F7D                     u4150:
  4040     0F7D  2F76               	goto	l2901
  4041     0F7E                     l2905:
  4042     0F7E  085D               	movf	___fldiv@aexp,w
  4043     0F7F  1903               	btfsc	3,2
  4044     0F80  2F82               	goto	u4161
  4045     0F81  2F83               	goto	u4160
  4046     0F82                     u4161:
  4047     0F82  2FB4               	goto	l2915
  4048     0F83                     u4160:
  4049     0F83                     l2907:
  4050     0F83  3001               	movlw	1
  4051     0F84  07C8               	addwf	___fldiv@b,f
  4052     0F85  3000               	movlw	0
  4053     0F86  1803               	skipnc
  4054     0F87  3001               	movlw	1
  4055     0F88  07C9               	addwf	___fldiv@b+1,f
  4056     0F89  3000               	movlw	0
  4057     0F8A  1803               	skipnc
  4058     0F8B  3001               	movlw	1
  4059     0F8C  07CA               	addwf	___fldiv@b+2,f
  4060     0F8D  3000               	movlw	0
  4061     0F8E  1803               	skipnc
  4062     0F8F  3001               	movlw	1
  4063     0F90  07CB               	addwf	___fldiv@b+3,f
  4064     0F91                     l2909:
  4065     0F91  1C4B               	btfss	___fldiv@b+3,0
  4066     0F92  2F94               	goto	u4171
  4067     0F93  2F95               	goto	u4170
  4068     0F94                     u4171:
  4069     0F94  2FB4               	goto	l2915
  4070     0F95                     u4170:
  4071     0F95                     l2911:
  4072     0F95  0848               	movf	___fldiv@b,w
  4073     0F96  00CC               	movwf	??___fldiv
  4074     0F97  0849               	movf	___fldiv@b+1,w
  4075     0F98  00CD               	movwf	??___fldiv+1
  4076     0F99  084A               	movf	___fldiv@b+2,w
  4077     0F9A  00CE               	movwf	??___fldiv+2
  4078     0F9B  084B               	movf	___fldiv@b+3,w
  4079     0F9C  00CF               	movwf	??___fldiv+3
  4080     0F9D  3001               	movlw	1
  4081     0F9E  00D0               	movwf	??___fldiv+4
  4082     0F9F                     u4185:
  4083     0F9F  0D4F               	rlf	??___fldiv+3,w
  4084     0FA0  0CCF               	rrf	??___fldiv+3,f
  4085     0FA1  0CCE               	rrf	??___fldiv+2,f
  4086     0FA2  0CCD               	rrf	??___fldiv+1,f
  4087     0FA3  0CCC               	rrf	??___fldiv,f
  4088     0FA4                     u4180:
  4089     0FA4  0BD0               	decfsz	??___fldiv+4,f
  4090     0FA5  2F9F               	goto	u4185
  4091     0FA6  084F               	movf	??___fldiv+3,w
  4092     0FA7  00CB               	movwf	___fldiv@b+3
  4093     0FA8  084E               	movf	??___fldiv+2,w
  4094     0FA9  00CA               	movwf	___fldiv@b+2
  4095     0FAA  084D               	movf	??___fldiv+1,w
  4096     0FAB  00C9               	movwf	___fldiv@b+1
  4097     0FAC  084C               	movf	??___fldiv,w
  4098     0FAD  00C8               	movwf	___fldiv@b
  4099     0FAE                     l2913:
  4100     0FAE  3001               	movlw	1
  4101     0FAF  07D6               	addwf	___fldiv@new_exp,f
  4102     0FB0  1803               	skipnc
  4103     0FB1  0AD7               	incf	___fldiv@new_exp+1,f
  4104     0FB2  3000               	movlw	0
  4105     0FB3  07D7               	addwf	___fldiv@new_exp+1,f
  4106     0FB4                     l2915:
  4107     0FB4  0857               	movf	___fldiv@new_exp+1,w
  4108     0FB5  3A80               	xorlw	128
  4109     0FB6  00FF               	movwf	btemp+1
  4110     0FB7  3080               	movlw	128
  4111     0FB8  027F               	subwf	btemp+1,w
  4112     0FB9  1D03               	skipz
  4113     0FBA  2FBD               	goto	u4195
  4114     0FBB  30FF               	movlw	255
  4115     0FBC  0256               	subwf	___fldiv@new_exp,w
  4116     0FBD                     u4195:
  4117     0FBD  1C03               	skipc
  4118     0FBE  2FC0               	goto	u4191
  4119     0FBF  2FC1               	goto	u4190
  4120     0FC0                     u4191:
  4121     0FC0  2FCF               	goto	l2919
  4122     0FC1                     u4190:
  4123     0FC1                     l2917:
  4124     0FC1  30FF               	movlw	255
  4125     0FC2  1283               	bcf	3,5	;RP0=0, select bank0
  4126     0FC3  1303               	bcf	3,6	;RP1=0, select bank0
  4127     0FC4  00D6               	movwf	___fldiv@new_exp
  4128     0FC5  3000               	movlw	0
  4129     0FC6  00D7               	movwf	___fldiv@new_exp+1
  4130     0FC7  3000               	movlw	0
  4131     0FC8  00CB               	movwf	___fldiv@b+3
  4132     0FC9  3000               	movlw	0
  4133     0FCA  00CA               	movwf	___fldiv@b+2
  4134     0FCB  3000               	movlw	0
  4135     0FCC  00C9               	movwf	___fldiv@b+1
  4136     0FCD  3000               	movlw	0
  4137     0FCE  00C8               	movwf	___fldiv@b
  4138     0FCF                     l2919:
  4139     0FCF  1283               	bcf	3,5	;RP0=0, select bank0
  4140     0FD0  1303               	bcf	3,6	;RP1=0, select bank0
  4141     0FD1  0857               	movf	___fldiv@new_exp+1,w
  4142     0FD2  3A80               	xorlw	128
  4143     0FD3  00FF               	movwf	btemp+1
  4144     0FD4  3080               	movlw	128
  4145     0FD5  027F               	subwf	btemp+1,w
  4146     0FD6  1D03               	skipz
  4147     0FD7  2FDA               	goto	u4205
  4148     0FD8  3001               	movlw	1
  4149     0FD9  0256               	subwf	___fldiv@new_exp,w
  4150     0FDA                     u4205:
  4151     0FDA  1803               	skipnc
  4152     0FDB  2FDD               	goto	u4201
  4153     0FDC  2FDE               	goto	u4200
  4154     0FDD                     u4201:
  4155     0FDD  2FEB               	goto	l692
  4156     0FDE                     u4200:
  4157     0FDE                     l2921:
  4158     0FDE  1283               	bcf	3,5	;RP0=0, select bank0
  4159     0FDF  1303               	bcf	3,6	;RP1=0, select bank0
  4160     0FE0  01D6               	clrf	___fldiv@new_exp
  4161     0FE1  01D7               	clrf	___fldiv@new_exp+1
  4162     0FE2                     l2923:
  4163     0FE2  3000               	movlw	0
  4164     0FE3  00CB               	movwf	___fldiv@b+3
  4165     0FE4  3000               	movlw	0
  4166     0FE5  00CA               	movwf	___fldiv@b+2
  4167     0FE6  3000               	movlw	0
  4168     0FE7  00C9               	movwf	___fldiv@b+1
  4169     0FE8  3000               	movlw	0
  4170     0FE9  00C8               	movwf	___fldiv@b
  4171     0FEA                     l2925:
  4172     0FEA  01D5               	clrf	___fldiv@sign
  4173     0FEB                     l692:
  4174     0FEB  1283               	bcf	3,5	;RP0=0, select bank0
  4175     0FEC  1303               	bcf	3,6	;RP1=0, select bank0
  4176     0FED  0856               	movf	___fldiv@new_exp,w
  4177     0FEE  00DC               	movwf	___fldiv@bexp
  4178     0FEF                     l2927:
  4179     0FEF  1C5C               	btfss	___fldiv@bexp,0
  4180     0FF0  2FF2               	goto	u4211
  4181     0FF1  2FF3               	goto	u4210
  4182     0FF2                     u4211:
  4183     0FF2  2FF5               	goto	l2931
  4184     0FF3                     u4210:
  4185     0FF3                     l2929:
  4186     0FF3  17CA               	bsf	___fldiv@b+2,7
  4187     0FF4  2FF7               	goto	l694
  4188     0FF5                     l2931:
  4189     0FF5  307F               	movlw	127
  4190     0FF6  05CA               	andwf	___fldiv@b+2,f
  4191     0FF7                     l694:
  4192     0FF7  085C               	movf	___fldiv@bexp,w
  4193     0FF8  00CC               	movwf	??___fldiv
  4194     0FF9  1003               	clrc
  4195     0FFA  0C4C               	rrf	??___fldiv,w
  4196     0FFB  00CB               	movwf	___fldiv@b+3
  4197     0FFC  0855               	movf	___fldiv@sign,w
  4198     0FFD  04CB               	iorwf	___fldiv@b+3,f
  4199     0FFE  2EA1               	goto	l2839
  4200     0FFF                     l672:
  4201     0FFF  0008               	return
  4202     1000                     __end_of___fldiv:
  4203                           
  4204                           	psect	text16
  4205     0362                     __ptext16:	
  4206 ;; *************** function ___fladd *****************
  4207 ;; Defined at:
  4208 ;;		line 10 in file "C:\Program Files\Microchip\xc8\v3.00\pic\sources\c99\common\sprcadd.c"
  4209 ;; Parameters:    Size  Location     Type
  4210 ;;  b               4   62[BANK0 ] unsigned char 
  4211 ;;  a               4   66[BANK0 ] unsigned char 
  4212 ;; Auto vars:     Size  Location     Type
  4213 ;;  grs             1    3[BANK1 ] unsigned char 
  4214 ;;  bexp            1    2[BANK1 ] unsigned char 
  4215 ;;  aexp            1    1[BANK1 ] unsigned char 
  4216 ;;  signs           1    0[BANK1 ] unsigned char 
  4217 ;; Return value:  Size  Location     Type
  4218 ;;                  4   62[BANK0 ] unsigned char 
  4219 ;; Registers used:
  4220 ;;		wreg, status,2, status,0, btemp+1
  4221 ;; Tracked objects:
  4222 ;;		On entry : 0/0
  4223 ;;		On exit  : 0/0
  4224 ;;		Unchanged: 0/0
  4225 ;; Data sizes:     COMMON   BANK0   BANK1   BANK3   BANK2
  4226 ;;      Params:         0       8       0       0       0
  4227 ;;      Locals:         0       0       4       0       0
  4228 ;;      Temps:          0       8       0       0       0
  4229 ;;      Totals:         0      16       4       0       0
  4230 ;;Total ram usage:       20 bytes
  4231 ;; Hardware stack levels used: 1
  4232 ;; Hardware stack levels required when called: 1
  4233 ;; This function calls:
  4234 ;;		Nothing
  4235 ;; This function is called by:
  4236 ;;		_comunicar_esp32_inicializar_usart
  4237 ;; This function uses a non-reentrant model
  4238 ;;
  4239                           
  4240     0362                     ___fladd:	
  4241                           ;psect for function ___fladd
  4242                           
  4243     0362                     l2595:	
  4244                           ;incstack = 0
  4245                           ; Regs used in ___fladd: [wreg+status,2+status,0+btemp+1]
  4246                           
  4247     0362  1283               	bcf	3,5	;RP0=0, select bank0
  4248     0363  1303               	bcf	3,6	;RP1=0, select bank0
  4249     0364  0861               	movf	___fladd@b+3,w
  4250     0365  1683               	bsf	3,5	;RP0=1, select bank1
  4251     0366  1303               	bcf	3,6	;RP1=0, select bank1
  4252     0367  00C0               	movwf	___fladd@signs^(0+128)
  4253     0368                     l2597:
  4254     0368  3080               	movlw	128
  4255     0369  05C0               	andwf	___fladd@signs^(0+128),f
  4256     036A                     l2599:
  4257     036A  1283               	bcf	3,5	;RP0=0, select bank0
  4258     036B  1303               	bcf	3,6	;RP1=0, select bank0
  4259     036C  0861               	movf	___fladd@b+3,w
  4260     036D  00E6               	movwf	??___fladd
  4261     036E  0766               	addwf	??___fladd,w
  4262     036F  1683               	bsf	3,5	;RP0=1, select bank1
  4263     0370  1303               	bcf	3,6	;RP1=0, select bank1
  4264     0371  00C2               	movwf	___fladd@bexp^(0+128)
  4265     0372                     l2601:
  4266     0372  1283               	bcf	3,5	;RP0=0, select bank0
  4267     0373  1303               	bcf	3,6	;RP1=0, select bank0
  4268     0374  1FE0               	btfss	___fladd@b+2,7
  4269     0375  2B77               	goto	u3471
  4270     0376  2B78               	goto	u3470
  4271     0377                     u3471:
  4272     0377  2B7B               	goto	l2605
  4273     0378                     u3470:
  4274     0378                     l2603:
  4275     0378  1683               	bsf	3,5	;RP0=1, select bank1
  4276     0379  1303               	bcf	3,6	;RP1=0, select bank1
  4277     037A  1442               	bsf	___fladd@bexp^(0+128),0
  4278     037B                     l2605:
  4279     037B  1683               	bsf	3,5	;RP0=1, select bank1
  4280     037C  1303               	bcf	3,6	;RP1=0, select bank1
  4281     037D  0842               	movf	___fladd@bexp^(0+128),w
  4282     037E  1903               	btfsc	3,2
  4283     037F  2B81               	goto	u3481
  4284     0380  2B82               	goto	u3480
  4285     0381                     u3481:
  4286     0381  2B95               	goto	l2615
  4287     0382                     u3480:
  4288     0382                     l2607:
  4289     0382  0A42               	incf	___fladd@bexp^(0+128),w
  4290     0383  1D03               	btfss	3,2
  4291     0384  2B86               	goto	u3491
  4292     0385  2B87               	goto	u3490
  4293     0386                     u3491:
  4294     0386  2B91               	goto	l2611
  4295     0387                     u3490:
  4296     0387                     l2609:
  4297     0387  3000               	movlw	0
  4298     0388  1283               	bcf	3,5	;RP0=0, select bank0
  4299     0389  1303               	bcf	3,6	;RP1=0, select bank0
  4300     038A  00E1               	movwf	___fladd@b+3
  4301     038B  3000               	movlw	0
  4302     038C  00E0               	movwf	___fladd@b+2
  4303     038D  3000               	movlw	0
  4304     038E  00DF               	movwf	___fladd@b+1
  4305     038F  3000               	movlw	0
  4306     0390  00DE               	movwf	___fladd@b
  4307     0391                     l2611:
  4308     0391  1283               	bcf	3,5	;RP0=0, select bank0
  4309     0392  17E0               	bsf	___fladd@b+2,7
  4310     0393                     l2613:
  4311     0393  01E1               	clrf	___fladd@b+3
  4312     0394  2B9F               	goto	l609
  4313     0395                     l2615:
  4314     0395  3000               	movlw	0
  4315     0396  1283               	bcf	3,5	;RP0=0, select bank0
  4316     0397  1303               	bcf	3,6	;RP1=0, select bank0
  4317     0398  00E1               	movwf	___fladd@b+3
  4318     0399  3000               	movlw	0
  4319     039A  00E0               	movwf	___fladd@b+2
  4320     039B  3000               	movlw	0
  4321     039C  00DF               	movwf	___fladd@b+1
  4322     039D  3000               	movlw	0
  4323     039E  00DE               	movwf	___fladd@b
  4324     039F                     l609:
  4325     039F  0865               	movf	___fladd@a+3,w
  4326     03A0  1683               	bsf	3,5	;RP0=1, select bank1
  4327     03A1  1303               	bcf	3,6	;RP1=0, select bank1
  4328     03A2  00C1               	movwf	___fladd@aexp^(0+128)
  4329     03A3                     l2617:
  4330     03A3  3080               	movlw	128
  4331     03A4  05C1               	andwf	___fladd@aexp^(0+128),f
  4332     03A5                     l2619:
  4333     03A5  0841               	movf	___fladd@aexp^(0+128),w
  4334     03A6  0640               	xorwf	___fladd@signs^(0+128),w
  4335     03A7  1903               	skipnz
  4336     03A8  2BAA               	goto	u3501
  4337     03A9  2BAB               	goto	u3500
  4338     03AA                     u3501:
  4339     03AA  2BAC               	goto	l2623
  4340     03AB                     u3500:
  4341     03AB                     l2621:
  4342     03AB  1740               	bsf	___fladd@signs^(0+128),6
  4343     03AC                     l2623:
  4344     03AC  1283               	bcf	3,5	;RP0=0, select bank0
  4345     03AD  1303               	bcf	3,6	;RP1=0, select bank0
  4346     03AE  0865               	movf	___fladd@a+3,w
  4347     03AF  00E6               	movwf	??___fladd
  4348     03B0  0766               	addwf	??___fladd,w
  4349     03B1  1683               	bsf	3,5	;RP0=1, select bank1
  4350     03B2  1303               	bcf	3,6	;RP1=0, select bank1
  4351     03B3  00C1               	movwf	___fladd@aexp^(0+128)
  4352     03B4                     l2625:
  4353     03B4  1283               	bcf	3,5	;RP0=0, select bank0
  4354     03B5  1303               	bcf	3,6	;RP1=0, select bank0
  4355     03B6  1FE4               	btfss	___fladd@a+2,7
  4356     03B7  2BB9               	goto	u3511
  4357     03B8  2BBA               	goto	u3510
  4358     03B9                     u3511:
  4359     03B9  2BBD               	goto	l2629
  4360     03BA                     u3510:
  4361     03BA                     l2627:
  4362     03BA  1683               	bsf	3,5	;RP0=1, select bank1
  4363     03BB  1303               	bcf	3,6	;RP1=0, select bank1
  4364     03BC  1441               	bsf	___fladd@aexp^(0+128),0
  4365     03BD                     l2629:
  4366     03BD  1683               	bsf	3,5	;RP0=1, select bank1
  4367     03BE  1303               	bcf	3,6	;RP1=0, select bank1
  4368     03BF  0841               	movf	___fladd@aexp^(0+128),w
  4369     03C0  1903               	btfsc	3,2
  4370     03C1  2BC3               	goto	u3521
  4371     03C2  2BC4               	goto	u3520
  4372     03C3                     u3521:
  4373     03C3  2BD7               	goto	l2639
  4374     03C4                     u3520:
  4375     03C4                     l2631:
  4376     03C4  0A41               	incf	___fladd@aexp^(0+128),w
  4377     03C5  1D03               	btfss	3,2
  4378     03C6  2BC8               	goto	u3531
  4379     03C7  2BC9               	goto	u3530
  4380     03C8                     u3531:
  4381     03C8  2BD3               	goto	l2635
  4382     03C9                     u3530:
  4383     03C9                     l2633:
  4384     03C9  3000               	movlw	0
  4385     03CA  1283               	bcf	3,5	;RP0=0, select bank0
  4386     03CB  1303               	bcf	3,6	;RP1=0, select bank0
  4387     03CC  00E5               	movwf	___fladd@a+3
  4388     03CD  3000               	movlw	0
  4389     03CE  00E4               	movwf	___fladd@a+2
  4390     03CF  3000               	movlw	0
  4391     03D0  00E3               	movwf	___fladd@a+1
  4392     03D1  3000               	movlw	0
  4393     03D2  00E2               	movwf	___fladd@a
  4394     03D3                     l2635:
  4395     03D3  1283               	bcf	3,5	;RP0=0, select bank0
  4396     03D4  17E4               	bsf	___fladd@a+2,7
  4397     03D5                     l2637:
  4398     03D5  01E5               	clrf	___fladd@a+3
  4399     03D6  2BE1               	goto	l614
  4400     03D7                     l2639:
  4401     03D7  3000               	movlw	0
  4402     03D8  1283               	bcf	3,5	;RP0=0, select bank0
  4403     03D9  1303               	bcf	3,6	;RP1=0, select bank0
  4404     03DA  00E5               	movwf	___fladd@a+3
  4405     03DB  3000               	movlw	0
  4406     03DC  00E4               	movwf	___fladd@a+2
  4407     03DD  3000               	movlw	0
  4408     03DE  00E3               	movwf	___fladd@a+1
  4409     03DF  3000               	movlw	0
  4410     03E0  00E2               	movwf	___fladd@a
  4411     03E1                     l614:
  4412     03E1  1683               	bsf	3,5	;RP0=1, select bank1
  4413     03E2  1303               	bcf	3,6	;RP1=0, select bank1
  4414     03E3  0842               	movf	___fladd@bexp^(0+128),w
  4415     03E4  0241               	subwf	___fladd@aexp^(0+128),w
  4416     03E5  1803               	skipnc
  4417     03E6  2BE8               	goto	u3541
  4418     03E7  2BE9               	goto	u3540
  4419     03E8                     u3541:
  4420     03E8  2C2F               	goto	l2675
  4421     03E9                     u3540:
  4422     03E9                     l2641:
  4423     03E9  1F40               	btfss	___fladd@signs^(0+128),6
  4424     03EA  2BEC               	goto	u3551
  4425     03EB  2BED               	goto	u3550
  4426     03EC                     u3551:
  4427     03EC  2BEF               	goto	l2645
  4428     03ED                     u3550:
  4429     03ED                     l2643:
  4430     03ED  3080               	movlw	128
  4431     03EE  06C0               	xorwf	___fladd@signs^(0+128),f
  4432     03EF                     l2645:
  4433     03EF  0842               	movf	___fladd@bexp^(0+128),w
  4434     03F0  00C3               	movwf	___fladd@grs^(0+128)
  4435     03F1                     l2647:
  4436     03F1  0841               	movf	___fladd@aexp^(0+128),w
  4437     03F2  00C2               	movwf	___fladd@bexp^(0+128)
  4438     03F3                     l2649:
  4439     03F3  0843               	movf	___fladd@grs^(0+128),w
  4440     03F4  00C1               	movwf	___fladd@aexp^(0+128)
  4441     03F5                     l2651:
  4442     03F5  1283               	bcf	3,5	;RP0=0, select bank0
  4443     03F6  1303               	bcf	3,6	;RP1=0, select bank0
  4444     03F7  085E               	movf	___fladd@b,w
  4445     03F8  1683               	bsf	3,5	;RP0=1, select bank1
  4446     03F9  1303               	bcf	3,6	;RP1=0, select bank1
  4447     03FA  00C3               	movwf	___fladd@grs^(0+128)
  4448     03FB                     l2653:
  4449     03FB  1283               	bcf	3,5	;RP0=0, select bank0
  4450     03FC  1303               	bcf	3,6	;RP1=0, select bank0
  4451     03FD  0862               	movf	___fladd@a,w
  4452     03FE  00DE               	movwf	___fladd@b
  4453     03FF                     l2655:
  4454     03FF  1683               	bsf	3,5	;RP0=1, select bank1
  4455     0400  1303               	bcf	3,6	;RP1=0, select bank1
  4456     0401  0843               	movf	___fladd@grs^(0+128),w
  4457     0402  1283               	bcf	3,5	;RP0=0, select bank0
  4458     0403  1303               	bcf	3,6	;RP1=0, select bank0
  4459     0404  00E2               	movwf	___fladd@a
  4460     0405                     l2657:
  4461     0405  085F               	movf	___fladd@b+1,w
  4462     0406  1683               	bsf	3,5	;RP0=1, select bank1
  4463     0407  1303               	bcf	3,6	;RP1=0, select bank1
  4464     0408  00C3               	movwf	___fladd@grs^(0+128)
  4465     0409                     l2659:
  4466     0409  1283               	bcf	3,5	;RP0=0, select bank0
  4467     040A  1303               	bcf	3,6	;RP1=0, select bank0
  4468     040B  0863               	movf	___fladd@a+1,w
  4469     040C  00DF               	movwf	___fladd@b+1
  4470     040D                     l2661:
  4471     040D  1683               	bsf	3,5	;RP0=1, select bank1
  4472     040E  1303               	bcf	3,6	;RP1=0, select bank1
  4473     040F  0843               	movf	___fladd@grs^(0+128),w
  4474     0410  1283               	bcf	3,5	;RP0=0, select bank0
  4475     0411  1303               	bcf	3,6	;RP1=0, select bank0
  4476     0412  00E3               	movwf	___fladd@a+1
  4477     0413                     l2663:
  4478     0413  0860               	movf	___fladd@b+2,w
  4479     0414  1683               	bsf	3,5	;RP0=1, select bank1
  4480     0415  1303               	bcf	3,6	;RP1=0, select bank1
  4481     0416  00C3               	movwf	___fladd@grs^(0+128)
  4482     0417                     l2665:
  4483     0417  1283               	bcf	3,5	;RP0=0, select bank0
  4484     0418  1303               	bcf	3,6	;RP1=0, select bank0
  4485     0419  0864               	movf	___fladd@a+2,w
  4486     041A  00E0               	movwf	___fladd@b+2
  4487     041B                     l2667:
  4488     041B  1683               	bsf	3,5	;RP0=1, select bank1
  4489     041C  1303               	bcf	3,6	;RP1=0, select bank1
  4490     041D  0843               	movf	___fladd@grs^(0+128),w
  4491     041E  1283               	bcf	3,5	;RP0=0, select bank0
  4492     041F  1303               	bcf	3,6	;RP1=0, select bank0
  4493     0420  00E4               	movwf	___fladd@a+2
  4494     0421                     l2669:
  4495     0421  0861               	movf	___fladd@b+3,w
  4496     0422  1683               	bsf	3,5	;RP0=1, select bank1
  4497     0423  1303               	bcf	3,6	;RP1=0, select bank1
  4498     0424  00C3               	movwf	___fladd@grs^(0+128)
  4499     0425                     l2671:
  4500     0425  1283               	bcf	3,5	;RP0=0, select bank0
  4501     0426  1303               	bcf	3,6	;RP1=0, select bank0
  4502     0427  0865               	movf	___fladd@a+3,w
  4503     0428  00E1               	movwf	___fladd@b+3
  4504     0429                     l2673:
  4505     0429  1683               	bsf	3,5	;RP0=1, select bank1
  4506     042A  1303               	bcf	3,6	;RP1=0, select bank1
  4507     042B  0843               	movf	___fladd@grs^(0+128),w
  4508     042C  1283               	bcf	3,5	;RP0=0, select bank0
  4509     042D  1303               	bcf	3,6	;RP1=0, select bank0
  4510     042E  00E5               	movwf	___fladd@a+3
  4511     042F                     l2675:
  4512     042F  1683               	bsf	3,5	;RP0=1, select bank1
  4513     0430  1303               	bcf	3,6	;RP1=0, select bank1
  4514     0431  01C3               	clrf	___fladd@grs^(0+128)
  4515     0432                     l2677:
  4516     0432  0841               	movf	___fladd@aexp^(0+128),w
  4517     0433  1283               	bcf	3,5	;RP0=0, select bank0
  4518     0434  1303               	bcf	3,6	;RP1=0, select bank0
  4519     0435  00E6               	movwf	??___fladd
  4520     0436  01E7               	clrf	??___fladd+1
  4521     0437  0867               	movf	??___fladd+1,w
  4522     0438  00E9               	movwf	??___fladd+3
  4523     0439  1683               	bsf	3,5	;RP0=1, select bank1
  4524     043A  1303               	bcf	3,6	;RP1=0, select bank1
  4525     043B  0842               	movf	___fladd@bexp^(0+128),w
  4526     043C  1283               	bcf	3,5	;RP0=0, select bank0
  4527     043D  1303               	bcf	3,6	;RP1=0, select bank0
  4528     043E  0266               	subwf	??___fladd,w
  4529     043F  00E8               	movwf	??___fladd+2
  4530     0440  1C03               	skipc
  4531     0441  03E9               	decf	??___fladd+3,f
  4532     0442  0869               	movf	??___fladd+3,w
  4533     0443  3A80               	xorlw	128
  4534     0444  00FF               	movwf	btemp+1
  4535     0445  3080               	movlw	128
  4536     0446  027F               	subwf	btemp+1,w
  4537     0447  1D03               	skipz
  4538     0448  2C4B               	goto	u3565
  4539     0449  301A               	movlw	26
  4540     044A  0268               	subwf	??___fladd+2,w
  4541     044B                     u3565:
  4542     044B  1C03               	skipc
  4543     044C  2C4E               	goto	u3561
  4544     044D  2C4F               	goto	u3560
  4545     044E                     u3561:
  4546     044E  2C95               	goto	l2693
  4547     044F                     u3560:
  4548     044F                     l2679:
  4549     044F  1283               	bcf	3,5	;RP0=0, select bank0
  4550     0450  1303               	bcf	3,6	;RP1=0, select bank0
  4551     0451  0861               	movf	___fladd@b+3,w
  4552     0452  0460               	iorwf	___fladd@b+2,w
  4553     0453  045F               	iorwf	___fladd@b+1,w
  4554     0454  045E               	iorwf	___fladd@b,w
  4555     0455  1D03               	skipz
  4556     0456  2C58               	goto	u3571
  4557     0457  2C5A               	goto	u3570
  4558     0458                     u3571:
  4559     0458  3001               	movlw	1
  4560     0459  2C5B               	goto	u3580
  4561     045A                     u3570:
  4562     045A  3000               	movlw	0
  4563     045B                     u3580:
  4564     045B  1683               	bsf	3,5	;RP0=1, select bank1
  4565     045C  1303               	bcf	3,6	;RP1=0, select bank1
  4566     045D  00C3               	movwf	___fladd@grs^(0+128)
  4567     045E  3000               	movlw	0
  4568     045F  1283               	bcf	3,5	;RP0=0, select bank0
  4569     0460  1303               	bcf	3,6	;RP1=0, select bank0
  4570     0461  00E1               	movwf	___fladd@b+3
  4571     0462  3000               	movlw	0
  4572     0463  00E0               	movwf	___fladd@b+2
  4573     0464  3000               	movlw	0
  4574     0465  00DF               	movwf	___fladd@b+1
  4575     0466  3000               	movlw	0
  4576     0467  00DE               	movwf	___fladd@b
  4577     0468  1683               	bsf	3,5	;RP0=1, select bank1
  4578     0469  1303               	bcf	3,6	;RP1=0, select bank1
  4579     046A  0841               	movf	___fladd@aexp^(0+128),w
  4580     046B  00C2               	movwf	___fladd@bexp^(0+128)
  4581     046C  2C9D               	goto	l618
  4582     046D                     l620:
  4583     046D  1C43               	btfss	___fladd@grs^(0+128),0
  4584     046E  2C70               	goto	u3591
  4585     046F  2C71               	goto	u3590
  4586     0470                     u3591:
  4587     0470  2C7C               	goto	l2683
  4588     0471                     u3590:
  4589     0471                     l2681:
  4590     0471  0843               	movf	___fladd@grs^(0+128),w
  4591     0472  1283               	bcf	3,5	;RP0=0, select bank0
  4592     0473  1303               	bcf	3,6	;RP1=0, select bank0
  4593     0474  00E6               	movwf	??___fladd
  4594     0475  1003               	clrc
  4595     0476  0C66               	rrf	??___fladd,w
  4596     0477  3801               	iorlw	1
  4597     0478  1683               	bsf	3,5	;RP0=1, select bank1
  4598     0479  1303               	bcf	3,6	;RP1=0, select bank1
  4599     047A  00C3               	movwf	___fladd@grs^(0+128)
  4600     047B  2C7E               	goto	l2685
  4601     047C                     l2683:
  4602     047C  1003               	clrc
  4603     047D  0CC3               	rrf	___fladd@grs^(0+128),f
  4604     047E                     l2685:
  4605     047E  1283               	bcf	3,5	;RP0=0, select bank0
  4606     047F  1303               	bcf	3,6	;RP1=0, select bank0
  4607     0480  1C5E               	btfss	___fladd@b,0
  4608     0481  2C83               	goto	u3601
  4609     0482  2C84               	goto	u3600
  4610     0483                     u3601:
  4611     0483  2C87               	goto	l2689
  4612     0484                     u3600:
  4613     0484                     l2687:
  4614     0484  1683               	bsf	3,5	;RP0=1, select bank1
  4615     0485  1303               	bcf	3,6	;RP1=0, select bank1
  4616     0486  17C3               	bsf	___fladd@grs^(0+128),7
  4617     0487                     l2689:
  4618     0487  3001               	movlw	1
  4619     0488  1283               	bcf	3,5	;RP0=0, select bank0
  4620     0489  00E6               	movwf	??___fladd
  4621     048A                     u3615:
  4622     048A  0D61               	rlf	___fladd@b+3,w
  4623     048B  0CE1               	rrf	___fladd@b+3,f
  4624     048C  0CE0               	rrf	___fladd@b+2,f
  4625     048D  0CDF               	rrf	___fladd@b+1,f
  4626     048E  0CDE               	rrf	___fladd@b,f
  4627     048F  0BE6               	decfsz	??___fladd& (0+127),f
  4628     0490  2C8A               	goto	u3615
  4629     0491                     l2691:
  4630     0491  3001               	movlw	1
  4631     0492  1683               	bsf	3,5	;RP0=1, select bank1
  4632     0493  1303               	bcf	3,6	;RP1=0, select bank1
  4633     0494  07C2               	addwf	___fladd@bexp^(0+128),f
  4634     0495                     l2693:
  4635     0495  1683               	bsf	3,5	;RP0=1, select bank1
  4636     0496  1303               	bcf	3,6	;RP1=0, select bank1
  4637     0497  0841               	movf	___fladd@aexp^(0+128),w
  4638     0498  0242               	subwf	___fladd@bexp^(0+128),w
  4639     0499  1C03               	skipc
  4640     049A  2C9C               	goto	u3621
  4641     049B  2C9D               	goto	u3620
  4642     049C                     u3621:
  4643     049C  2C6D               	goto	l620
  4644     049D                     u3620:
  4645     049D                     l618:
  4646     049D  1B40               	btfsc	___fladd@signs^(0+128),6
  4647     049E  2CA0               	goto	u3631
  4648     049F  2CA1               	goto	u3630
  4649     04A0                     u3631:
  4650     04A0  2CF9               	goto	l2719
  4651     04A1                     u3630:
  4652     04A1                     l2695:
  4653     04A1  0842               	movf	___fladd@bexp^(0+128),w
  4654     04A2  1D03               	btfss	3,2
  4655     04A3  2CA5               	goto	u3641
  4656     04A4  2CA6               	goto	u3640
  4657     04A5                     u3641:
  4658     04A5  2CB1               	goto	l2701
  4659     04A6                     u3640:
  4660     04A6                     l2697:
  4661     04A6  3000               	movlw	0
  4662     04A7  1283               	bcf	3,5	;RP0=0, select bank0
  4663     04A8  1303               	bcf	3,6	;RP1=0, select bank0
  4664     04A9  00E1               	movwf	?___fladd+3
  4665     04AA  3000               	movlw	0
  4666     04AB  00E0               	movwf	?___fladd+2
  4667     04AC  3000               	movlw	0
  4668     04AD  00DF               	movwf	?___fladd+1
  4669     04AE  3000               	movlw	0
  4670     04AF  00DE               	movwf	?___fladd
  4671     04B0  2E51               	goto	l627
  4672     04B1                     l2701:
  4673     04B1  1283               	bcf	3,5	;RP0=0, select bank0
  4674     04B2  1303               	bcf	3,6	;RP1=0, select bank0
  4675     04B3  0862               	movf	___fladd@a,w
  4676     04B4  07DE               	addwf	___fladd@b,f
  4677     04B5  0863               	movf	___fladd@a+1,w
  4678     04B6  1103               	clrz
  4679     04B7  1803               	skipnc
  4680     04B8  3E01               	addlw	1
  4681     04B9  1903               	skipnz
  4682     04BA  2CBC               	goto	u3651
  4683     04BB  07DF               	addwf	___fladd@b+1,f
  4684     04BC                     u3651:
  4685     04BC  0864               	movf	___fladd@a+2,w
  4686     04BD  1103               	clrz
  4687     04BE  1803               	skipnc
  4688     04BF  3E01               	addlw	1
  4689     04C0  1903               	skipnz
  4690     04C1  2CC3               	goto	u3652
  4691     04C2  07E0               	addwf	___fladd@b+2,f
  4692     04C3                     u3652:
  4693     04C3  0865               	movf	___fladd@a+3,w
  4694     04C4  1103               	clrz
  4695     04C5  1803               	skipnc
  4696     04C6  3E01               	addlw	1
  4697     04C7  1903               	skipnz
  4698     04C8  2CCA               	goto	u3653
  4699     04C9  07E1               	addwf	___fladd@b+3,f
  4700     04CA                     u3653:
  4701     04CA                     l2703:
  4702     04CA  1C61               	btfss	___fladd@b+3,0
  4703     04CB  2CCD               	goto	u3661
  4704     04CC  2CCE               	goto	u3660
  4705     04CD                     u3661:
  4706     04CD  2DBF               	goto	l2755
  4707     04CE                     u3660:
  4708     04CE                     l2705:
  4709     04CE  1683               	bsf	3,5	;RP0=1, select bank1
  4710     04CF  1303               	bcf	3,6	;RP1=0, select bank1
  4711     04D0  1C43               	btfss	___fladd@grs^(0+128),0
  4712     04D1  2CD3               	goto	u3671
  4713     04D2  2CD4               	goto	u3670
  4714     04D3                     u3671:
  4715     04D3  2CDF               	goto	l2709
  4716     04D4                     u3670:
  4717     04D4                     l2707:
  4718     04D4  0843               	movf	___fladd@grs^(0+128),w
  4719     04D5  1283               	bcf	3,5	;RP0=0, select bank0
  4720     04D6  1303               	bcf	3,6	;RP1=0, select bank0
  4721     04D7  00E6               	movwf	??___fladd
  4722     04D8  1003               	clrc
  4723     04D9  0C66               	rrf	??___fladd,w
  4724     04DA  3801               	iorlw	1
  4725     04DB  1683               	bsf	3,5	;RP0=1, select bank1
  4726     04DC  1303               	bcf	3,6	;RP1=0, select bank1
  4727     04DD  00C3               	movwf	___fladd@grs^(0+128)
  4728     04DE  2CE1               	goto	l2711
  4729     04DF                     l2709:
  4730     04DF  1003               	clrc
  4731     04E0  0CC3               	rrf	___fladd@grs^(0+128),f
  4732     04E1                     l2711:
  4733     04E1  1283               	bcf	3,5	;RP0=0, select bank0
  4734     04E2  1303               	bcf	3,6	;RP1=0, select bank0
  4735     04E3  1C5E               	btfss	___fladd@b,0
  4736     04E4  2CE6               	goto	u3681
  4737     04E5  2CE7               	goto	u3680
  4738     04E6                     u3681:
  4739     04E6  2CEA               	goto	l2715
  4740     04E7                     u3680:
  4741     04E7                     l2713:
  4742     04E7  1683               	bsf	3,5	;RP0=1, select bank1
  4743     04E8  1303               	bcf	3,6	;RP1=0, select bank1
  4744     04E9  17C3               	bsf	___fladd@grs^(0+128),7
  4745     04EA                     l2715:
  4746     04EA  3001               	movlw	1
  4747     04EB  1283               	bcf	3,5	;RP0=0, select bank0
  4748     04EC  00E6               	movwf	??___fladd
  4749     04ED                     u3695:
  4750     04ED  0D61               	rlf	___fladd@b+3,w
  4751     04EE  0CE1               	rrf	___fladd@b+3,f
  4752     04EF  0CE0               	rrf	___fladd@b+2,f
  4753     04F0  0CDF               	rrf	___fladd@b+1,f
  4754     04F1  0CDE               	rrf	___fladd@b,f
  4755     04F2  0BE6               	decfsz	??___fladd& (0+127),f
  4756     04F3  2CED               	goto	u3695
  4757     04F4                     l2717:
  4758     04F4  3001               	movlw	1
  4759     04F5  1683               	bsf	3,5	;RP0=1, select bank1
  4760     04F6  1303               	bcf	3,6	;RP1=0, select bank1
  4761     04F7  07C2               	addwf	___fladd@bexp^(0+128),f
  4762     04F8  2DBF               	goto	l2755
  4763     04F9                     l2719:
  4764     04F9  1283               	bcf	3,5	;RP0=0, select bank0
  4765     04FA  1303               	bcf	3,6	;RP1=0, select bank0
  4766     04FB  0861               	movf	___fladd@b+3,w
  4767     04FC  3A80               	xorlw	128
  4768     04FD  00FF               	movwf	btemp+1
  4769     04FE  0865               	movf	___fladd@a+3,w
  4770     04FF  3A80               	xorlw	128
  4771     0500  027F               	subwf	btemp+1,w
  4772     0501  1D03               	skipz
  4773     0502  2D0D               	goto	u3703
  4774     0503  0864               	movf	___fladd@a+2,w
  4775     0504  0260               	subwf	___fladd@b+2,w
  4776     0505  1D03               	skipz
  4777     0506  2D0D               	goto	u3703
  4778     0507  0863               	movf	___fladd@a+1,w
  4779     0508  025F               	subwf	___fladd@b+1,w
  4780     0509  1D03               	skipz
  4781     050A  2D0D               	goto	u3703
  4782     050B  0862               	movf	___fladd@a,w
  4783     050C  025E               	subwf	___fladd@b,w
  4784     050D                     u3703:
  4785     050D  1803               	skipnc
  4786     050E  2D10               	goto	u3701
  4787     050F  2D11               	goto	u3700
  4788     0510                     u3701:
  4789     0510  2D6C               	goto	l2731
  4790     0511                     u3700:
  4791     0511                     l2721:
  4792     0511  30FF               	movlw	255
  4793     0512  00E6               	movwf	??___fladd
  4794     0513  30FF               	movlw	255
  4795     0514  00E7               	movwf	??___fladd+1
  4796     0515  30FF               	movlw	255
  4797     0516  00E8               	movwf	??___fladd+2
  4798     0517  30FF               	movlw	255
  4799     0518  00E9               	movwf	??___fladd+3
  4800     0519  0862               	movf	___fladd@a,w
  4801     051A  00EA               	movwf	??___fladd+4
  4802     051B  0863               	movf	___fladd@a+1,w
  4803     051C  00EB               	movwf	??___fladd+5
  4804     051D  0864               	movf	___fladd@a+2,w
  4805     051E  00EC               	movwf	??___fladd+6
  4806     051F  0865               	movf	___fladd@a+3,w
  4807     0520  00ED               	movwf	??___fladd+7
  4808     0521  085E               	movf	___fladd@b,w
  4809     0522  02EA               	subwf	??___fladd+4,f
  4810     0523  085F               	movf	___fladd@b+1,w
  4811     0524  1C03               	skipc
  4812     0525  0F5F               	incfsz	___fladd@b+1,w
  4813     0526  2D28               	goto	u3711
  4814     0527  2D29               	goto	u3712
  4815     0528                     u3711:
  4816     0528  02EB               	subwf	??___fladd+5,f
  4817     0529                     u3712:
  4818     0529  0860               	movf	___fladd@b+2,w
  4819     052A  1C03               	skipc
  4820     052B  0F60               	incfsz	___fladd@b+2,w
  4821     052C  2D2E               	goto	u3713
  4822     052D  2D2F               	goto	u3714
  4823     052E                     u3713:
  4824     052E  02EC               	subwf	??___fladd+6,f
  4825     052F                     u3714:
  4826     052F  0861               	movf	___fladd@b+3,w
  4827     0530  1C03               	skipc
  4828     0531  0F61               	incfsz	___fladd@b+3,w
  4829     0532  2D34               	goto	u3715
  4830     0533  2D35               	goto	u3716
  4831     0534                     u3715:
  4832     0534  02ED               	subwf	??___fladd+7,f
  4833     0535                     u3716:
  4834     0535  086A               	movf	??___fladd+4,w
  4835     0536  07E6               	addwf	??___fladd,f
  4836     0537  086B               	movf	??___fladd+5,w
  4837     0538  1803               	skipnc
  4838     0539  0F6B               	incfsz	??___fladd+5,w
  4839     053A  2D3C               	goto	u3720
  4840     053B  2D3D               	goto	u3721
  4841     053C                     u3720:
  4842     053C  07E7               	addwf	??___fladd+1,f
  4843     053D                     u3721:
  4844     053D  086C               	movf	??___fladd+6,w
  4845     053E  1803               	skipnc
  4846     053F  0F6C               	incfsz	??___fladd+6,w
  4847     0540  2D42               	goto	u3722
  4848     0541  2D43               	goto	u3723
  4849     0542                     u3722:
  4850     0542  07E8               	addwf	??___fladd+2,f
  4851     0543                     u3723:
  4852     0543  086D               	movf	??___fladd+7,w
  4853     0544  1803               	skipnc
  4854     0545  0A6D               	incf	??___fladd+7,w
  4855     0546  07E9               	addwf	??___fladd+3,f
  4856     0547  0869               	movf	??___fladd+3,w
  4857     0548  00E1               	movwf	___fladd@b+3
  4858     0549  0868               	movf	??___fladd+2,w
  4859     054A  00E0               	movwf	___fladd@b+2
  4860     054B  0867               	movf	??___fladd+1,w
  4861     054C  00DF               	movwf	___fladd@b+1
  4862     054D  0866               	movf	??___fladd,w
  4863     054E  00DE               	movwf	___fladd@b
  4864     054F                     l2723:
  4865     054F  3080               	movlw	128
  4866     0550  1683               	bsf	3,5	;RP0=1, select bank1
  4867     0551  1303               	bcf	3,6	;RP1=0, select bank1
  4868     0552  06C0               	xorwf	___fladd@signs^(0+128),f
  4869     0553                     l2725:
  4870     0553  0343               	decf	___fladd@grs^(0+128),w
  4871     0554  3AFF               	xorlw	255
  4872     0555  00C3               	movwf	___fladd@grs^(0+128)
  4873     0556                     l2727:
  4874     0556  0843               	movf	___fladd@grs^(0+128),w
  4875     0557  1D03               	btfss	3,2
  4876     0558  2D5A               	goto	u3731
  4877     0559  2D5B               	goto	u3730
  4878     055A                     u3731:
  4879     055A  2D7A               	goto	l635
  4880     055B                     u3730:
  4881     055B                     l2729:
  4882     055B  3001               	movlw	1
  4883     055C  1283               	bcf	3,5	;RP0=0, select bank0
  4884     055D  1303               	bcf	3,6	;RP1=0, select bank0
  4885     055E  07DE               	addwf	___fladd@b,f
  4886     055F  3000               	movlw	0
  4887     0560  1803               	skipnc
  4888     0561  3001               	movlw	1
  4889     0562  07DF               	addwf	___fladd@b+1,f
  4890     0563  3000               	movlw	0
  4891     0564  1803               	skipnc
  4892     0565  3001               	movlw	1
  4893     0566  07E0               	addwf	___fladd@b+2,f
  4894     0567  3000               	movlw	0
  4895     0568  1803               	skipnc
  4896     0569  3001               	movlw	1
  4897     056A  07E1               	addwf	___fladd@b+3,f
  4898     056B  2D7A               	goto	l635
  4899     056C                     l2731:
  4900     056C  0862               	movf	___fladd@a,w
  4901     056D  02DE               	subwf	___fladd@b,f
  4902     056E  0863               	movf	___fladd@a+1,w
  4903     056F  1C03               	skipc
  4904     0570  0F63               	incfsz	___fladd@a+1,w
  4905     0571  02DF               	subwf	___fladd@b+1,f
  4906     0572  0864               	movf	___fladd@a+2,w
  4907     0573  1C03               	skipc
  4908     0574  0F64               	incfsz	___fladd@a+2,w
  4909     0575  02E0               	subwf	___fladd@b+2,f
  4910     0576  0865               	movf	___fladd@a+3,w
  4911     0577  1C03               	skipc
  4912     0578  0F65               	incfsz	___fladd@a+3,w
  4913     0579  02E1               	subwf	___fladd@b+3,f
  4914     057A                     l635:
  4915     057A  1283               	bcf	3,5	;RP0=0, select bank0
  4916     057B  0861               	movf	___fladd@b+3,w
  4917     057C  0460               	iorwf	___fladd@b+2,w
  4918     057D  045F               	iorwf	___fladd@b+1,w
  4919     057E  045E               	iorwf	___fladd@b,w
  4920     057F  1D03               	skipz
  4921     0580  2D82               	goto	u3741
  4922     0581  2D83               	goto	u3740
  4923     0582                     u3741:
  4924     0582  2DBA               	goto	l2753
  4925     0583                     u3740:
  4926     0583                     l2733:
  4927     0583  1683               	bsf	3,5	;RP0=1, select bank1
  4928     0584  1303               	bcf	3,6	;RP1=0, select bank1
  4929     0585  0843               	movf	___fladd@grs^(0+128),w
  4930     0586  1D03               	btfss	3,2
  4931     0587  2D89               	goto	u3751
  4932     0588  2D8A               	goto	u3750
  4933     0589                     u3751:
  4934     0589  2DBA               	goto	l2753
  4935     058A                     u3750:
  4936     058A                     l2735:
  4937     058A  3000               	movlw	0
  4938     058B  1283               	bcf	3,5	;RP0=0, select bank0
  4939     058C  1303               	bcf	3,6	;RP1=0, select bank0
  4940     058D  00E1               	movwf	?___fladd+3
  4941     058E  3000               	movlw	0
  4942     058F  00E0               	movwf	?___fladd+2
  4943     0590  3000               	movlw	0
  4944     0591  00DF               	movwf	?___fladd+1
  4945     0592  3000               	movlw	0
  4946     0593  00DE               	movwf	?___fladd
  4947     0594  2E51               	goto	l627
  4948     0595                     l2739:
  4949     0595  3001               	movlw	1
  4950     0596  00E6               	movwf	??___fladd
  4951     0597                     u3765:
  4952     0597  1003               	clrc
  4953     0598  0DDE               	rlf	___fladd@b,f
  4954     0599  0DDF               	rlf	___fladd@b+1,f
  4955     059A  0DE0               	rlf	___fladd@b+2,f
  4956     059B  0DE1               	rlf	___fladd@b+3,f
  4957     059C  0BE6               	decfsz	??___fladd,f
  4958     059D  2D97               	goto	u3765
  4959     059E                     l2741:
  4960     059E  1683               	bsf	3,5	;RP0=1, select bank1
  4961     059F  1303               	bcf	3,6	;RP1=0, select bank1
  4962     05A0  1FC3               	btfss	___fladd@grs^(0+128),7
  4963     05A1  2DA3               	goto	u3771
  4964     05A2  2DA4               	goto	u3770
  4965     05A3                     u3771:
  4966     05A3  2DA7               	goto	l639
  4967     05A4                     u3770:
  4968     05A4                     l2743:
  4969     05A4  1283               	bcf	3,5	;RP0=0, select bank0
  4970     05A5  1303               	bcf	3,6	;RP1=0, select bank0
  4971     05A6  145E               	bsf	___fladd@b,0
  4972     05A7                     l639:
  4973     05A7  1683               	bsf	3,5	;RP0=1, select bank1
  4974     05A8  1303               	bcf	3,6	;RP1=0, select bank1
  4975     05A9  1C43               	btfss	___fladd@grs^(0+128),0
  4976     05AA  2DAC               	goto	u3781
  4977     05AB  2DAD               	goto	u3780
  4978     05AC                     u3781:
  4979     05AC  2DB1               	goto	l2747
  4980     05AD                     u3780:
  4981     05AD                     l2745:
  4982     05AD  1403               	setc
  4983     05AE  0D43               	rlf	___fladd@grs^(0+128),w
  4984     05AF  00C3               	movwf	___fladd@grs^(0+128)
  4985     05B0  2DB3               	goto	l2749
  4986     05B1                     l2747:
  4987     05B1  1003               	clrc
  4988     05B2  0DC3               	rlf	___fladd@grs^(0+128),f
  4989     05B3                     l2749:
  4990     05B3  0842               	movf	___fladd@bexp^(0+128),w
  4991     05B4  1903               	btfsc	3,2
  4992     05B5  2DB7               	goto	u3791
  4993     05B6  2DB8               	goto	u3790
  4994     05B7                     u3791:
  4995     05B7  2DBA               	goto	l2753
  4996     05B8                     u3790:
  4997     05B8                     l2751:
  4998     05B8  3001               	movlw	1
  4999     05B9  02C2               	subwf	___fladd@bexp^(0+128),f
  5000     05BA                     l2753:
  5001     05BA  1283               	bcf	3,5	;RP0=0, select bank0
  5002     05BB  1FE0               	btfss	___fladd@b+2,7
  5003     05BC  2DBE               	goto	u3801
  5004     05BD  2DBF               	goto	u3800
  5005     05BE                     u3801:
  5006     05BE  2D95               	goto	l2739
  5007     05BF                     u3800:
  5008     05BF                     l2755:
  5009     05BF  1683               	bsf	3,5	;RP0=1, select bank1
  5010     05C0  1303               	bcf	3,6	;RP1=0, select bank1
  5011     05C1  01C1               	clrf	___fladd@aexp^(0+128)
  5012     05C2                     l2757:
  5013     05C2  1FC3               	btfss	___fladd@grs^(0+128),7
  5014     05C3  2DC5               	goto	u3811
  5015     05C4  2DC6               	goto	u3810
  5016     05C5                     u3811:
  5017     05C5  2DD8               	goto	l2765
  5018     05C6                     u3810:
  5019     05C6                     l2759:
  5020     05C6  0843               	movf	___fladd@grs^(0+128),w
  5021     05C7  397F               	andlw	127
  5022     05C8  1903               	btfsc	3,2
  5023     05C9  2DCB               	goto	u3821
  5024     05CA  2DCC               	goto	u3820
  5025     05CB                     u3821:
  5026     05CB  2DD1               	goto	l645
  5027     05CC                     u3820:
  5028     05CC                     l2761:
  5029     05CC  3001               	movlw	1
  5030     05CD  1683               	bsf	3,5	;RP0=1, select bank1
  5031     05CE  1303               	bcf	3,6	;RP1=0, select bank1
  5032     05CF  00C1               	movwf	___fladd@aexp^(0+128)
  5033     05D0  2DD8               	goto	l2765
  5034     05D1                     l645:
  5035     05D1  1283               	bcf	3,5	;RP0=0, select bank0
  5036     05D2  1303               	bcf	3,6	;RP1=0, select bank0
  5037     05D3  1C5E               	btfss	___fladd@b,0
  5038     05D4  2DD6               	goto	u3831
  5039     05D5  2DD7               	goto	u3830
  5040     05D6                     u3831:
  5041     05D6  2DD8               	goto	l2765
  5042     05D7                     u3830:
  5043     05D7  2DCC               	goto	l2761
  5044     05D8                     l2765:
  5045     05D8  1683               	bsf	3,5	;RP0=1, select bank1
  5046     05D9  1303               	bcf	3,6	;RP1=0, select bank1
  5047     05DA  0841               	movf	___fladd@aexp^(0+128),w
  5048     05DB  1903               	btfsc	3,2
  5049     05DC  2DDE               	goto	u3841
  5050     05DD  2DDF               	goto	u3840
  5051     05DE                     u3841:
  5052     05DE  2E15               	goto	l648
  5053     05DF                     u3840:
  5054     05DF                     l2767:
  5055     05DF  3001               	movlw	1
  5056     05E0  1283               	bcf	3,5	;RP0=0, select bank0
  5057     05E1  1303               	bcf	3,6	;RP1=0, select bank0
  5058     05E2  07DE               	addwf	___fladd@b,f
  5059     05E3  3000               	movlw	0
  5060     05E4  1803               	skipnc
  5061     05E5  3001               	movlw	1
  5062     05E6  07DF               	addwf	___fladd@b+1,f
  5063     05E7  3000               	movlw	0
  5064     05E8  1803               	skipnc
  5065     05E9  3001               	movlw	1
  5066     05EA  07E0               	addwf	___fladd@b+2,f
  5067     05EB  3000               	movlw	0
  5068     05EC  1803               	skipnc
  5069     05ED  3001               	movlw	1
  5070     05EE  07E1               	addwf	___fladd@b+3,f
  5071     05EF                     l2769:
  5072     05EF  1C61               	btfss	___fladd@b+3,0
  5073     05F0  2DF2               	goto	u3851
  5074     05F1  2DF3               	goto	u3850
  5075     05F2                     u3851:
  5076     05F2  2E15               	goto	l648
  5077     05F3                     u3850:
  5078     05F3                     l2771:
  5079     05F3  085E               	movf	___fladd@b,w
  5080     05F4  00E6               	movwf	??___fladd
  5081     05F5  085F               	movf	___fladd@b+1,w
  5082     05F6  00E7               	movwf	??___fladd+1
  5083     05F7  0860               	movf	___fladd@b+2,w
  5084     05F8  00E8               	movwf	??___fladd+2
  5085     05F9  0861               	movf	___fladd@b+3,w
  5086     05FA  00E9               	movwf	??___fladd+3
  5087     05FB  3001               	movlw	1
  5088     05FC  00EA               	movwf	??___fladd+4
  5089     05FD                     u3865:
  5090     05FD  0D69               	rlf	??___fladd+3,w
  5091     05FE  0CE9               	rrf	??___fladd+3,f
  5092     05FF  0CE8               	rrf	??___fladd+2,f
  5093     0600  0CE7               	rrf	??___fladd+1,f
  5094     0601  0CE6               	rrf	??___fladd,f
  5095     0602                     u3860:
  5096     0602  0BEA               	decfsz	??___fladd+4,f
  5097     0603  2DFD               	goto	u3865
  5098     0604  0869               	movf	??___fladd+3,w
  5099     0605  00E1               	movwf	___fladd@b+3
  5100     0606  0868               	movf	??___fladd+2,w
  5101     0607  00E0               	movwf	___fladd@b+2
  5102     0608  0867               	movf	??___fladd+1,w
  5103     0609  00DF               	movwf	___fladd@b+1
  5104     060A  0866               	movf	??___fladd,w
  5105     060B  00DE               	movwf	___fladd@b
  5106     060C  1683               	bsf	3,5	;RP0=1, select bank1
  5107     060D  1303               	bcf	3,6	;RP1=0, select bank1
  5108     060E  0A42               	incf	___fladd@bexp^(0+128),w
  5109     060F  1903               	btfsc	3,2
  5110     0610  2E12               	goto	u3871
  5111     0611  2E13               	goto	u3870
  5112     0612                     u3871:
  5113     0612  2E15               	goto	l648
  5114     0613                     u3870:
  5115     0613                     l2773:
  5116     0613  3001               	movlw	1
  5117     0614  07C2               	addwf	___fladd@bexp^(0+128),f
  5118     0615                     l648:
  5119     0615  1683               	bsf	3,5	;RP0=1, select bank1
  5120     0616  1303               	bcf	3,6	;RP1=0, select bank1
  5121     0617  0A42               	incf	___fladd@bexp^(0+128),w
  5122     0618  1903               	btfsc	3,2
  5123     0619  2E1B               	goto	u3881
  5124     061A  2E1C               	goto	u3880
  5125     061B                     u3881:
  5126     061B  2E21               	goto	l2777
  5127     061C                     u3880:
  5128     061C                     l2775:
  5129     061C  0842               	movf	___fladd@bexp^(0+128),w
  5130     061D  1D03               	btfss	3,2
  5131     061E  2E20               	goto	u3891
  5132     061F  2E21               	goto	u3890
  5133     0620                     u3891:
  5134     0620  2E33               	goto	l2783
  5135     0621                     u3890:
  5136     0621                     l2777:
  5137     0621  3000               	movlw	0
  5138     0622  1283               	bcf	3,5	;RP0=0, select bank0
  5139     0623  1303               	bcf	3,6	;RP1=0, select bank0
  5140     0624  00E1               	movwf	___fladd@b+3
  5141     0625  3000               	movlw	0
  5142     0626  00E0               	movwf	___fladd@b+2
  5143     0627  3000               	movlw	0
  5144     0628  00DF               	movwf	___fladd@b+1
  5145     0629  3000               	movlw	0
  5146     062A  00DE               	movwf	___fladd@b
  5147     062B                     l2779:
  5148     062B  1683               	bsf	3,5	;RP0=1, select bank1
  5149     062C  1303               	bcf	3,6	;RP1=0, select bank1
  5150     062D  0842               	movf	___fladd@bexp^(0+128),w
  5151     062E  1D03               	btfss	3,2
  5152     062F  2E31               	goto	u3901
  5153     0630  2E32               	goto	u3900
  5154     0631                     u3901:
  5155     0631  2E33               	goto	l2783
  5156     0632                     u3900:
  5157     0632                     l2781:
  5158     0632  01C0               	clrf	___fladd@signs^(0+128)
  5159     0633                     l2783:
  5160     0633  1C42               	btfss	___fladd@bexp^(0+128),0
  5161     0634  2E36               	goto	u3911
  5162     0635  2E37               	goto	u3910
  5163     0636                     u3911:
  5164     0636  2E3B               	goto	l2787
  5165     0637                     u3910:
  5166     0637                     l2785:
  5167     0637  1283               	bcf	3,5	;RP0=0, select bank0
  5168     0638  1303               	bcf	3,6	;RP1=0, select bank0
  5169     0639  17E0               	bsf	___fladd@b+2,7
  5170     063A  2E3F               	goto	l656
  5171     063B                     l2787:
  5172     063B  307F               	movlw	127
  5173     063C  1283               	bcf	3,5	;RP0=0, select bank0
  5174     063D  1303               	bcf	3,6	;RP1=0, select bank0
  5175     063E  05E0               	andwf	___fladd@b+2,f
  5176     063F                     l656:
  5177     063F  1683               	bsf	3,5	;RP0=1, select bank1
  5178     0640  1303               	bcf	3,6	;RP1=0, select bank1
  5179     0641  0842               	movf	___fladd@bexp^(0+128),w
  5180     0642  1283               	bcf	3,5	;RP0=0, select bank0
  5181     0643  1303               	bcf	3,6	;RP1=0, select bank0
  5182     0644  00E6               	movwf	??___fladd
  5183     0645  1003               	clrc
  5184     0646  0C66               	rrf	??___fladd,w
  5185     0647  00E1               	movwf	___fladd@b+3
  5186     0648                     l2789:
  5187     0648  1683               	bsf	3,5	;RP0=1, select bank1
  5188     0649  1303               	bcf	3,6	;RP1=0, select bank1
  5189     064A  1FC0               	btfss	___fladd@signs^(0+128),7
  5190     064B  2E4D               	goto	u3921
  5191     064C  2E4E               	goto	u3920
  5192     064D                     u3921:
  5193     064D  2E51               	goto	l657
  5194     064E                     u3920:
  5195     064E                     l2791:
  5196     064E  1283               	bcf	3,5	;RP0=0, select bank0
  5197     064F  1303               	bcf	3,6	;RP1=0, select bank0
  5198     0650  17E1               	bsf	___fladd@b+3,7
  5199     0651                     l657:
  5200     0651                     l627:
  5201     0651  0008               	return
  5202     0652                     __end_of___fladd:
  5203                           
  5204                           	psect	text17
  5205     0B8D                     __ptext17:	
  5206 ;; *************** function _feedback_indicar_sistema_pronto *****************
  5207 ;; Defined at:
  5208 ;;		line 86 in file "feedback_robo.c"
  5209 ;; Parameters:    Size  Location     Type
  5210 ;;		None
  5211 ;; Auto vars:     Size  Location     Type
  5212 ;;		None
  5213 ;; Return value:  Size  Location     Type
  5214 ;;                  1    wreg      void 
  5215 ;; Registers used:
  5216 ;;		wreg, fsr0l, fsr0h, status,2, status,0, pclath, cstack
  5217 ;; Tracked objects:
  5218 ;;		On entry : 0/0
  5219 ;;		On exit  : 0/0
  5220 ;;		Unchanged: 0/0
  5221 ;; Data sizes:     COMMON   BANK0   BANK1   BANK3   BANK2
  5222 ;;      Params:         0       0       0       0       0
  5223 ;;      Locals:         0       0       0       0       0
  5224 ;;      Temps:          0       0       0       0       0
  5225 ;;      Totals:         0       0       0       0       0
  5226 ;;Total ram usage:        0 bytes
  5227 ;; Hardware stack levels used: 1
  5228 ;; Hardware stack levels required when called: 3
  5229 ;; This function calls:
  5230 ;;		_feedback_buzzer_controlar
  5231 ;;		_feedback_led_rgb_definir_cor
  5232 ;; This function is called by:
  5233 ;;		_main
  5234 ;; This function uses a non-reentrant model
  5235 ;;
  5236                           
  5237     0B8D                     _feedback_indicar_sistema_pronto:	
  5238                           ;psect for function _feedback_indicar_sistema_pronto
  5239                           
  5240     0B8D                     l3205:	
  5241                           ;incstack = 0
  5242                           ; Regs used in _feedback_indicar_sistema_pronto: [wreg-fsr0h+status,2+status,0+pclath+cs
      +                          tack]
  5243                           
  5244                           
  5245                           ;feedback_robo.c: 87:     feedback_led_rgb_definir_cor(RGB_VERDE);
  5246     0B8D  3002               	movlw	2
  5247     0B8E  120A  158A  2438  120A  158A  	fcall	_feedback_led_rgb_definir_cor
  5248                           
  5249                           ;feedback_robo.c: 88:     feedback_buzzer_controlar(BUZZER_BIPE_CURTO, 0, 0, 0);
  5250     0B93  3000               	movlw	0
  5251     0B94  1283               	bcf	3,5	;RP0=0, select bank0
  5252     0B95  1303               	bcf	3,6	;RP1=0, select bank0
  5253     0B96  00A0               	movwf	feedback_buzzer_controlar@duracao_ms_on
  5254     0B97  00A1               	movwf	feedback_buzzer_controlar@duracao_ms_on+1
  5255     0B98  3000               	movlw	0
  5256     0B99  00A2               	movwf	feedback_buzzer_controlar@duracao_ms_off
  5257     0B9A  00A3               	movwf	feedback_buzzer_controlar@duracao_ms_off+1
  5258     0B9B  01A4               	clrf	feedback_buzzer_controlar@repeticoes
  5259     0B9C  3001               	movlw	1
  5260     0B9D  120A  158A  2475  120A  158A  	fcall	_feedback_buzzer_controlar
  5261     0BA2                     l131:
  5262     0BA2  0008               	return
  5263     0BA3                     __end_of_feedback_indicar_sistema_pronto:
  5264                           
  5265                           	psect	text18
  5266     0B3D                     __ptext18:	
  5267 ;; *************** function _feedback_indicar_movimento_andamento *****************
  5268 ;; Defined at:
  5269 ;;		line 96 in file "feedback_robo.c"
  5270 ;; Parameters:    Size  Location     Type
  5271 ;;		None
  5272 ;; Auto vars:     Size  Location     Type
  5273 ;;		None
  5274 ;; Return value:  Size  Location     Type
  5275 ;;                  1    wreg      void 
  5276 ;; Registers used:
  5277 ;;		wreg, fsr0l, fsr0h, status,2, status,0, pclath, cstack
  5278 ;; Tracked objects:
  5279 ;;		On entry : 0/0
  5280 ;;		On exit  : 0/0
  5281 ;;		Unchanged: 0/0
  5282 ;; Data sizes:     COMMON   BANK0   BANK1   BANK3   BANK2
  5283 ;;      Params:         0       0       0       0       0
  5284 ;;      Locals:         0       0       0       0       0
  5285 ;;      Temps:          0       0       0       0       0
  5286 ;;      Totals:         0       0       0       0       0
  5287 ;;Total ram usage:        0 bytes
  5288 ;; Hardware stack levels used: 1
  5289 ;; Hardware stack levels required when called: 2
  5290 ;; This function calls:
  5291 ;;		_feedback_buzzer_parar
  5292 ;;		_feedback_led_rgb_definir_cor
  5293 ;; This function is called by:
  5294 ;;		_main
  5295 ;; This function uses a non-reentrant model
  5296 ;;
  5297                           
  5298     0B3D                     _feedback_indicar_movimento_andamento:	
  5299                           ;psect for function _feedback_indicar_movimento_andamento
  5300                           
  5301     0B3D                     l3259:	
  5302                           ;incstack = 0
  5303                           ; Regs used in _feedback_indicar_movimento_andamento: [wreg-fsr0h+status,2+status,0+pcla
      +                          th+cstack]
  5304                           
  5305                           
  5306                           ;feedback_robo.c: 97:     feedback_led_rgb_definir_cor(RGB_MAGENTA);
  5307     0B3D  3005               	movlw	5
  5308     0B3E  120A  158A  2438  120A  158A  	fcall	_feedback_led_rgb_definir_cor
  5309     0B43                     l3261:
  5310                           
  5311                           ;feedback_robo.c: 98:     feedback_buzzer_parar();
  5312     0B43  120A  158A  2302  120A  158A  	fcall	_feedback_buzzer_parar
  5313     0B48                     l137:
  5314     0B48  0008               	return
  5315     0B49                     __end_of_feedback_indicar_movimento_andamento:
  5316                           
  5317                           	psect	text19
  5318     0B02                     __ptext19:	
  5319 ;; *************** function _feedback_buzzer_parar *****************
  5320 ;; Defined at:
  5321 ;;		line 77 in file "feedback_robo.c"
  5322 ;; Parameters:    Size  Location     Type
  5323 ;;		None
  5324 ;; Auto vars:     Size  Location     Type
  5325 ;;		None
  5326 ;; Return value:  Size  Location     Type
  5327 ;;                  1    wreg      void 
  5328 ;; Registers used:
  5329 ;;		None
  5330 ;; Tracked objects:
  5331 ;;		On entry : 0/0
  5332 ;;		On exit  : 0/0
  5333 ;;		Unchanged: 0/0
  5334 ;; Data sizes:     COMMON   BANK0   BANK1   BANK3   BANK2
  5335 ;;      Params:         0       0       0       0       0
  5336 ;;      Locals:         0       0       0       0       0
  5337 ;;      Temps:          0       0       0       0       0
  5338 ;;      Totals:         0       0       0       0       0
  5339 ;;Total ram usage:        0 bytes
  5340 ;; Hardware stack levels used: 1
  5341 ;; Hardware stack levels required when called: 1
  5342 ;; This function calls:
  5343 ;;		Nothing
  5344 ;; This function is called by:
  5345 ;;		_feedback_indicar_movimento_andamento
  5346 ;;		_feedback_indicar_modo_espera
  5347 ;;		_feedback_indicar_modo_especial
  5348 ;;		_feedback_indicar_estado_desligado
  5349 ;; This function uses a non-reentrant model
  5350 ;;
  5351                           
  5352     0B02                     _feedback_buzzer_parar:	
  5353                           ;psect for function _feedback_buzzer_parar
  5354                           
  5355     0B02                     l3193:	
  5356                           ;incstack = 0
  5357                           ; Regs used in _feedback_buzzer_parar: []
  5358                           
  5359                           
  5360                           ;feedback_robo.c: 78:     (PORTDbits.RD1 = 0);
  5361     0B02  1283               	bcf	3,5	;RP0=0, select bank0
  5362     0B03  1303               	bcf	3,6	;RP1=0, select bank0
  5363     0B04  1088               	bcf	8,1	;volatile
  5364     0B05                     l125:
  5365     0B05  0008               	return
  5366     0B06                     __end_of_feedback_buzzer_parar:
  5367                           
  5368                           	psect	text20
  5369     0B77                     __ptext20:	
  5370 ;; *************** function _feedback_indicar_comunicacao_uart *****************
  5371 ;; Defined at:
  5372 ;;		line 101 in file "feedback_robo.c"
  5373 ;; Parameters:    Size  Location     Type
  5374 ;;		None
  5375 ;; Auto vars:     Size  Location     Type
  5376 ;;		None
  5377 ;; Return value:  Size  Location     Type
  5378 ;;                  1    wreg      void 
  5379 ;; Registers used:
  5380 ;;		wreg, fsr0l, fsr0h, status,2, status,0, pclath, cstack
  5381 ;; Tracked objects:
  5382 ;;		On entry : 0/0
  5383 ;;		On exit  : 0/0
  5384 ;;		Unchanged: 0/0
  5385 ;; Data sizes:     COMMON   BANK0   BANK1   BANK3   BANK2
  5386 ;;      Params:         0       0       0       0       0
  5387 ;;      Locals:         0       0       0       0       0
  5388 ;;      Temps:          0       0       0       0       0
  5389 ;;      Totals:         0       0       0       0       0
  5390 ;;Total ram usage:        0 bytes
  5391 ;; Hardware stack levels used: 1
  5392 ;; Hardware stack levels required when called: 3
  5393 ;; This function calls:
  5394 ;;		_feedback_buzzer_controlar
  5395 ;;		_feedback_led_rgb_definir_cor
  5396 ;; This function is called by:
  5397 ;;		_main
  5398 ;; This function uses a non-reentrant model
  5399 ;;
  5400                           
  5401     0B77                     _feedback_indicar_comunicacao_uart:	
  5402                           ;psect for function _feedback_indicar_comunicacao_uart
  5403                           
  5404     0B77                     l3211:	
  5405                           ;incstack = 0
  5406                           ; Regs used in _feedback_indicar_comunicacao_uart: [wreg-fsr0h+status,2+status,0+pclath+
      +                          cstack]
  5407                           
  5408                           
  5409                           ;feedback_robo.c: 102:     feedback_led_rgb_definir_cor(RGB_AMARELO);
  5410     0B77  3004               	movlw	4
  5411     0B78  120A  158A  2438  120A  158A  	fcall	_feedback_led_rgb_definir_cor
  5412                           
  5413                           ;feedback_robo.c: 103:     feedback_buzzer_controlar(BUZZER_BIPE_CURTO, 0, 0, 0);
  5414     0B7D  3000               	movlw	0
  5415     0B7E  1283               	bcf	3,5	;RP0=0, select bank0
  5416     0B7F  1303               	bcf	3,6	;RP1=0, select bank0
  5417     0B80  00A0               	movwf	feedback_buzzer_controlar@duracao_ms_on
  5418     0B81  00A1               	movwf	feedback_buzzer_controlar@duracao_ms_on+1
  5419     0B82  3000               	movlw	0
  5420     0B83  00A2               	movwf	feedback_buzzer_controlar@duracao_ms_off
  5421     0B84  00A3               	movwf	feedback_buzzer_controlar@duracao_ms_off+1
  5422     0B85  01A4               	clrf	feedback_buzzer_controlar@repeticoes
  5423     0B86  3001               	movlw	1
  5424     0B87  120A  158A  2475  120A  158A  	fcall	_feedback_buzzer_controlar
  5425     0B8C                     l140:
  5426     0B8C  0008               	return
  5427     0B8D                     __end_of_feedback_indicar_comunicacao_uart:
  5428                           
  5429                           	psect	text21
  5430     0C38                     __ptext21:	
  5431 ;; *************** function _feedback_led_rgb_definir_cor *****************
  5432 ;; Defined at:
  5433 ;;		line 34 in file "feedback_robo.c"
  5434 ;; Parameters:    Size  Location     Type
  5435 ;;  cor             1    wreg     enum E1006
  5436 ;; Auto vars:     Size  Location     Type
  5437 ;;  cor             1    6[COMMON] enum E1006
  5438 ;; Return value:  Size  Location     Type
  5439 ;;                  1    wreg      void 
  5440 ;; Registers used:
  5441 ;;		wreg, fsr0l, fsr0h, status,2, status,0
  5442 ;; Tracked objects:
  5443 ;;		On entry : 0/0
  5444 ;;		On exit  : 0/0
  5445 ;;		Unchanged: 0/0
  5446 ;; Data sizes:     COMMON   BANK0   BANK1   BANK3   BANK2
  5447 ;;      Params:         0       0       0       0       0
  5448 ;;      Locals:         1       0       0       0       0
  5449 ;;      Temps:          2       0       0       0       0
  5450 ;;      Totals:         3       0       0       0       0
  5451 ;;Total ram usage:        3 bytes
  5452 ;; Hardware stack levels used: 1
  5453 ;; Hardware stack levels required when called: 1
  5454 ;; This function calls:
  5455 ;;		Nothing
  5456 ;; This function is called by:
  5457 ;;		_feedback_indicar_sistema_pronto
  5458 ;;		_feedback_indicar_movimento_andamento
  5459 ;;		_feedback_indicar_comunicacao_uart
  5460 ;;		_feedback_indicar_erro_critico
  5461 ;;		_feedback_indicar_modo_espera
  5462 ;;		_feedback_indicar_aviso_processamento
  5463 ;;		_feedback_indicar_modo_especial
  5464 ;;		_feedback_indicar_falha_grave_imediata
  5465 ;;		_feedback_indicar_entrega_correta
  5466 ;;		_feedback_indicar_estado_desligado
  5467 ;; This function uses a non-reentrant model
  5468 ;;
  5469                           
  5470     0C38                     _feedback_led_rgb_definir_cor:	
  5471                           ;psect for function _feedback_led_rgb_definir_cor
  5472                           
  5473                           
  5474                           ;incstack = 0
  5475                           ; Regs used in _feedback_led_rgb_definir_cor: [wreg-fsr0h+status,2+status,0]
  5476                           ;feedback_led_rgb_definir_cor@cor stored from wreg
  5477     0C38  00F6               	movwf	feedback_led_rgb_definir_cor@cor
  5478     0C39                     l3165:
  5479                           
  5480                           ;feedback_robo.c: 36:     (PORTDbits.RD5 = 0);
  5481     0C39  1283               	bcf	3,5	;RP0=0, select bank0
  5482     0C3A  1303               	bcf	3,6	;RP1=0, select bank0
  5483     0C3B  1288               	bcf	8,5	;volatile
  5484                           
  5485                           ;feedback_robo.c: 37:     (PORTDbits.RD7 = 0);
  5486     0C3C  1388               	bcf	8,7	;volatile
  5487                           
  5488                           ;feedback_robo.c: 38:     (PORTDbits.RD6 = 0);
  5489     0C3D  1308               	bcf	8,6	;volatile
  5490                           
  5491                           ;feedback_robo.c: 40:     switch (cor) {
  5492     0C3E  2C52               	goto	l3169
  5493     0C3F                     l102:	
  5494                           ;feedback_robo.c: 41:         case RGB_VERMELHO: (PORTDbits.RD5 = 1); break;
  5495                           
  5496     0C3F  1688               	bsf	8,5	;volatile
  5497     0C40  2C74               	goto	l112
  5498     0C41                     l104:	
  5499                           ;feedback_robo.c: 42:         case RGB_VERDE: (PORTDbits.RD7 = 1); break;
  5500                           
  5501     0C41  1788               	bsf	8,7	;volatile
  5502     0C42  2C74               	goto	l112
  5503     0C43                     l105:	
  5504                           ;feedback_robo.c: 43:         case RGB_AZUL: (PORTDbits.RD6 = 1); break;
  5505                           
  5506     0C43  1708               	bsf	8,6	;volatile
  5507     0C44  2C74               	goto	l112
  5508     0C45                     l106:	
  5509                           ;feedback_robo.c: 44:         case RGB_AMARELO: (PORTDbits.RD5 = 1); (PORTDbits.RD7 = 1)
      +                          ; break;
  5510                           
  5511     0C45  1688               	bsf	8,5	;volatile
  5512     0C46  1788               	bsf	8,7	;volatile
  5513     0C47  2C74               	goto	l112
  5514     0C48                     l107:	
  5515                           ;feedback_robo.c: 45:         case RGB_MAGENTA: (PORTDbits.RD5 = 1); (PORTDbits.RD6 = 1)
      +                          ; break;
  5516                           
  5517     0C48  1688               	bsf	8,5	;volatile
  5518     0C49  1708               	bsf	8,6	;volatile
  5519     0C4A  2C74               	goto	l112
  5520     0C4B                     l108:	
  5521                           ;feedback_robo.c: 46:         case RGB_CIANO: (PORTDbits.RD7 = 1); (PORTDbits.RD6 = 1); 
      +                          break;
  5522                           
  5523     0C4B  1788               	bsf	8,7	;volatile
  5524     0C4C  1708               	bsf	8,6	;volatile
  5525     0C4D  2C74               	goto	l112
  5526     0C4E                     l109:	
  5527                           ;feedback_robo.c: 47:         case RGB_BRANCO: (PORTDbits.RD5 = 1); (PORTDbits.RD7 = 1);
      +                           (PORTDbits.RD6 = 1); break;
  5528                           
  5529     0C4E  1688               	bsf	8,5	;volatile
  5530     0C4F  1788               	bsf	8,7	;volatile
  5531     0C50  1708               	bsf	8,6	;volatile
  5532     0C51  2C74               	goto	l112
  5533     0C52                     l3169:
  5534     0C52  0876               	movf	feedback_led_rgb_definir_cor@cor,w
  5535     0C53  00F4               	movwf	??_feedback_led_rgb_definir_cor
  5536     0C54  01F5               	clrf	??_feedback_led_rgb_definir_cor+1
  5537                           
  5538                           ; Switch on 2 bytes has been partitioned into a top level switch of size 1, and 1 sub-sw
      +                          itches
  5539                           ; Switch size 1, requested type "simple"
  5540                           ; Number of cases is 1, Range of values is 0 to 0
  5541                           ; switch strategies available:
  5542                           ; Name         Instructions Cycles
  5543                           ; simple_byte            4     3 (average)
  5544                           ; direct_byte           11     8 (fixed)
  5545                           ; jumptable            260     6 (fixed)
  5546                           ;	Chosen strategy is simple_byte
  5547     0C55  0875               	movf	??_feedback_led_rgb_definir_cor+1,w
  5548     0C56  3A00               	xorlw	0	; case 0
  5549     0C57  1903               	skipnz
  5550     0C58  2C5A               	goto	l3379
  5551     0C59  2C74               	goto	l112
  5552     0C5A                     l3379:
  5553                           
  5554                           ; Switch size 1, requested type "simple"
  5555                           ; Number of cases is 8, Range of values is 0 to 7
  5556                           ; switch strategies available:
  5557                           ; Name         Instructions Cycles
  5558                           ; simple_byte           25    13 (average)
  5559                           ; direct_byte           32     8 (fixed)
  5560                           ; jumptable            260     6 (fixed)
  5561                           ;	Chosen strategy is simple_byte
  5562     0C5A  0874               	movf	??_feedback_led_rgb_definir_cor,w
  5563     0C5B  3A00               	xorlw	0	; case 0
  5564     0C5C  1903               	skipnz
  5565     0C5D  2C74               	goto	l112
  5566     0C5E  3A01               	xorlw	1	; case 1
  5567     0C5F  1903               	skipnz
  5568     0C60  2C3F               	goto	l102
  5569     0C61  3A03               	xorlw	3	; case 2
  5570     0C62  1903               	skipnz
  5571     0C63  2C41               	goto	l104
  5572     0C64  3A01               	xorlw	1	; case 3
  5573     0C65  1903               	skipnz
  5574     0C66  2C43               	goto	l105
  5575     0C67  3A07               	xorlw	7	; case 4
  5576     0C68  1903               	skipnz
  5577     0C69  2C45               	goto	l106
  5578     0C6A  3A01               	xorlw	1	; case 5
  5579     0C6B  1903               	skipnz
  5580     0C6C  2C48               	goto	l107
  5581     0C6D  3A03               	xorlw	3	; case 6
  5582     0C6E  1903               	skipnz
  5583     0C6F  2C4B               	goto	l108
  5584     0C70  3A01               	xorlw	1	; case 7
  5585     0C71  1903               	skipnz
  5586     0C72  2C4E               	goto	l109
  5587     0C73  2C74               	goto	l112
  5588     0C74                     l112:
  5589     0C74  0008               	return
  5590     0C75                     __end_of_feedback_led_rgb_definir_cor:
  5591                           
  5592                           	psect	text22
  5593     0C75                     __ptext22:	
  5594 ;; *************** function _feedback_buzzer_controlar *****************
  5595 ;; Defined at:
  5596 ;;		line 52 in file "feedback_robo.c"
  5597 ;; Parameters:    Size  Location     Type
  5598 ;;  padrao          1    wreg     enum E1016
  5599 ;;  duracao_ms_o    2    0[BANK0 ] unsigned int 
  5600 ;;  duracao_ms_o    2    2[BANK0 ] unsigned int 
  5601 ;;  repeticoes      1    4[BANK0 ] unsigned char 
  5602 ;; Auto vars:     Size  Location     Type
  5603 ;;  padrao          1    9[BANK0 ] enum E1016
  5604 ;;  off_duration    2    7[BANK0 ] unsigned int 
  5605 ;;  on_duration     2    0        unsigned int 
  5606 ;; Return value:  Size  Location     Type
  5607 ;;                  1    wreg      void 
  5608 ;; Registers used:
  5609 ;;		wreg, fsr0l, fsr0h, status,2, status,0, pclath, cstack
  5610 ;; Tracked objects:
  5611 ;;		On entry : 0/0
  5612 ;;		On exit  : 0/0
  5613 ;;		Unchanged: 0/0
  5614 ;; Data sizes:     COMMON   BANK0   BANK1   BANK3   BANK2
  5615 ;;      Params:         0       5       0       0       0
  5616 ;;      Locals:         0       3       0       0       0
  5617 ;;      Temps:          0       2       0       0       0
  5618 ;;      Totals:         0      10       0       0       0
  5619 ;;Total ram usage:       10 bytes
  5620 ;; Hardware stack levels used: 1
  5621 ;; Hardware stack levels required when called: 2
  5622 ;; This function calls:
  5623 ;;		_delay_ms_variavel
  5624 ;; This function is called by:
  5625 ;;		_feedback_indicar_sistema_pronto
  5626 ;;		_feedback_indicar_comunicacao_uart
  5627 ;;		_feedback_indicar_erro_critico
  5628 ;;		_feedback_indicar_aviso_processamento
  5629 ;;		_feedback_indicar_falha_grave_imediata
  5630 ;;		_feedback_indicar_entrega_correta
  5631 ;; This function uses a non-reentrant model
  5632 ;;
  5633                           
  5634     0C75                     _feedback_buzzer_controlar:	
  5635                           ;psect for function _feedback_buzzer_controlar
  5636                           
  5637                           
  5638                           ;incstack = 0
  5639                           ; Regs used in _feedback_buzzer_controlar: [wreg-fsr0h+status,2+status,0+pclath+cstack]
  5640                           ;feedback_buzzer_controlar@padrao stored from wreg
  5641     0C75  1283               	bcf	3,5	;RP0=0, select bank0
  5642     0C76  1303               	bcf	3,6	;RP1=0, select bank0
  5643     0C77  00A9               	movwf	feedback_buzzer_controlar@padrao
  5644     0C78                     l3175:
  5645                           
  5646                           ;feedback_robo.c: 54:     unsigned int off_duration = duracao_ms_off;
  5647     0C78  0823               	movf	feedback_buzzer_controlar@duracao_ms_off+1,w
  5648     0C79  00A8               	movwf	feedback_buzzer_controlar@off_duration+1
  5649     0C7A  0822               	movf	feedback_buzzer_controlar@duracao_ms_off,w
  5650     0C7B  00A7               	movwf	feedback_buzzer_controlar@off_duration
  5651                           
  5652                           ;feedback_robo.c: 56:     switch (padrao) {
  5653     0C7C  2C9D               	goto	l3187
  5654     0C7D                     l116:	
  5655                           ;feedback_robo.c: 57:         case BUZZER_BIPE_CURTO:
  5656                           
  5657                           
  5658                           ;feedback_robo.c: 58:             (PORTDbits.RD1 = 1);
  5659     0C7D  1488               	bsf	8,1	;volatile
  5660     0C7E                     l3177:
  5661                           
  5662                           ;feedback_robo.c: 59:             delay_ms_variavel(100);
  5663     0C7E  3064               	movlw	100
  5664     0C7F  00F4               	movwf	delay_ms_variavel@milissegundos
  5665     0C80  3000               	movlw	0
  5666     0C81  00F5               	movwf	delay_ms_variavel@milissegundos+1
  5667     0C82  120A  158A  2362  120A  158A  	fcall	_delay_ms_variavel
  5668     0C87                     l3179:
  5669                           
  5670                           ;feedback_robo.c: 60:             (PORTDbits.RD1 = 0);
  5671     0C87  1283               	bcf	3,5	;RP0=0, select bank0
  5672     0C88  1303               	bcf	3,6	;RP1=0, select bank0
  5673     0C89  1088               	bcf	8,1	;volatile
  5674                           
  5675                           ;feedback_robo.c: 61:             break;
  5676     0C8A  2CB3               	goto	l122
  5677     0C8B                     l118:	
  5678                           ;feedback_robo.c: 62:         case BUZZER_BIPE_LONGO:
  5679                           
  5680                           
  5681                           ;feedback_robo.c: 63:             (PORTDbits.RD1 = 1);
  5682     0C8B  1488               	bsf	8,1	;volatile
  5683     0C8C                     l3181:
  5684                           
  5685                           ;feedback_robo.c: 64:             delay_ms_variavel(500);
  5686     0C8C  30F4               	movlw	244
  5687     0C8D  00F4               	movwf	delay_ms_variavel@milissegundos
  5688     0C8E  3001               	movlw	1
  5689     0C8F  00F5               	movwf	delay_ms_variavel@milissegundos+1
  5690     0C90  120A  158A  2362  120A  158A  	fcall	_delay_ms_variavel
  5691     0C95                     l3183:
  5692                           
  5693                           ;feedback_robo.c: 65:             (PORTDbits.RD1 = 0);
  5694     0C95  1283               	bcf	3,5	;RP0=0, select bank0
  5695     0C96  1303               	bcf	3,6	;RP1=0, select bank0
  5696     0C97  1088               	bcf	8,1	;volatile
  5697                           
  5698                           ;feedback_robo.c: 66:             break;
  5699     0C98  2CB3               	goto	l122
  5700     0C99                     l119:	
  5701                           ;feedback_robo.c: 67:         case BUZZER_ALERTA_CONTINUO:
  5702                           
  5703                           
  5704                           ;feedback_robo.c: 68:             (PORTDbits.RD1 = 1);
  5705     0C99  1488               	bsf	8,1	;volatile
  5706                           
  5707                           ;feedback_robo.c: 69:             break;
  5708     0C9A  2CB3               	goto	l122
  5709     0C9B                     l121:	
  5710                           ;feedback_robo.c: 71:         default:
  5711                           
  5712                           
  5713                           ;feedback_robo.c: 72:             (PORTDbits.RD1 = 0);
  5714     0C9B  1088               	bcf	8,1	;volatile
  5715                           
  5716                           ;feedback_robo.c: 73:             break;
  5717     0C9C  2CB3               	goto	l122
  5718     0C9D                     l3187:
  5719     0C9D  0829               	movf	feedback_buzzer_controlar@padrao,w
  5720     0C9E  00A5               	movwf	??_feedback_buzzer_controlar
  5721     0C9F  01A6               	clrf	??_feedback_buzzer_controlar+1
  5722                           
  5723                           ; Switch on 2 bytes has been partitioned into a top level switch of size 1, and 1 sub-sw
      +                          itches
  5724                           ; Switch size 1, requested type "simple"
  5725                           ; Number of cases is 1, Range of values is 0 to 0
  5726                           ; switch strategies available:
  5727                           ; Name         Instructions Cycles
  5728                           ; simple_byte            4     3 (average)
  5729                           ; direct_byte           11     8 (fixed)
  5730                           ; jumptable            260     6 (fixed)
  5731                           ;	Chosen strategy is simple_byte
  5732     0CA0  0826               	movf	??_feedback_buzzer_controlar+1,w
  5733     0CA1  3A00               	xorlw	0	; case 0
  5734     0CA2  1903               	skipnz
  5735     0CA3  2CA5               	goto	l3381
  5736     0CA4  2C9B               	goto	l121
  5737     0CA5                     l3381:
  5738                           
  5739                           ; Switch size 1, requested type "simple"
  5740                           ; Number of cases is 4, Range of values is 0 to 4
  5741                           ; switch strategies available:
  5742                           ; Name         Instructions Cycles
  5743                           ; simple_byte           13     7 (average)
  5744                           ; direct_byte           23     8 (fixed)
  5745                           ; jumptable            260     6 (fixed)
  5746                           ;	Chosen strategy is simple_byte
  5747     0CA5  0825               	movf	??_feedback_buzzer_controlar,w
  5748     0CA6  3A00               	xorlw	0	; case 0
  5749     0CA7  1903               	skipnz
  5750     0CA8  2C9B               	goto	l121
  5751     0CA9  3A01               	xorlw	1	; case 1
  5752     0CAA  1903               	skipnz
  5753     0CAB  2C7D               	goto	l116
  5754     0CAC  3A03               	xorlw	3	; case 2
  5755     0CAD  1903               	skipnz
  5756     0CAE  2C8B               	goto	l118
  5757     0CAF  3A06               	xorlw	6	; case 4
  5758     0CB0  1903               	skipnz
  5759     0CB1  2C99               	goto	l119
  5760     0CB2  2C9B               	goto	l121
  5761     0CB3                     l122:
  5762     0CB3  0008               	return
  5763     0CB4                     __end_of_feedback_buzzer_controlar:
  5764                           
  5765                           	psect	text23
  5766     0B62                     __ptext23:	
  5767 ;; *************** function _delay_ms_variavel *****************
  5768 ;; Defined at:
  5769 ;;		line 13 in file "feedback_robo.c"
  5770 ;; Parameters:    Size  Location     Type
  5771 ;;  milissegundo    2    4[COMMON] unsigned int 
  5772 ;; Auto vars:     Size  Location     Type
  5773 ;;		None
  5774 ;; Return value:  Size  Location     Type
  5775 ;;                  1    wreg      void 
  5776 ;; Registers used:
  5777 ;;		wreg, status,2, status,0
  5778 ;; Tracked objects:
  5779 ;;		On entry : 0/0
  5780 ;;		On exit  : 0/0
  5781 ;;		Unchanged: 0/0
  5782 ;; Data sizes:     COMMON   BANK0   BANK1   BANK3   BANK2
  5783 ;;      Params:         2       0       0       0       0
  5784 ;;      Locals:         0       0       0       0       0
  5785 ;;      Temps:          1       0       0       0       0
  5786 ;;      Totals:         3       0       0       0       0
  5787 ;;Total ram usage:        3 bytes
  5788 ;; Hardware stack levels used: 1
  5789 ;; Hardware stack levels required when called: 1
  5790 ;; This function calls:
  5791 ;;		Nothing
  5792 ;; This function is called by:
  5793 ;;		_feedback_buzzer_controlar
  5794 ;; This function uses a non-reentrant model
  5795 ;;
  5796                           
  5797     0B62                     _delay_ms_variavel:	
  5798                           ;psect for function _delay_ms_variavel
  5799                           
  5800     0B62                     l2553:	
  5801                           ;incstack = 0
  5802                           ; Regs used in _delay_ms_variavel: [wreg+status,2+status,0]
  5803                           
  5804                           
  5805                           ;feedback_robo.c: 14:     while (milissegundos > 0) {
  5806     0B62  2B70               	goto	l2557
  5807     0B63                     l2555:
  5808                           
  5809                           ;feedback_robo.c: 15:         _delay((unsigned long)((999)*(4000000/4000000.0)));
  5810     0B63  30C7               	movlw	199
  5811     0B64  00F6               	movwf	??_delay_ms_variavel
  5812     0B65                     u4917:
  5813     0B65  2B66               	nop2
  5814     0B66  0BF6               	decfsz	??_delay_ms_variavel,f
  5815     0B67  2B65               	goto	u4917
  5816     0B68  2B69               	nop2
  5817     0B69  0000               	nop
  5818                           
  5819                           ;feedback_robo.c: 16:         milissegundos--;
  5820     0B6A  3001               	movlw	1
  5821     0B6B  02F4               	subwf	delay_ms_variavel@milissegundos,f
  5822     0B6C  3000               	movlw	0
  5823     0B6D  1C03               	skipc
  5824     0B6E  03F5               	decf	delay_ms_variavel@milissegundos+1,f
  5825     0B6F  02F5               	subwf	delay_ms_variavel@milissegundos+1,f
  5826     0B70                     l2557:
  5827                           
  5828                           ;feedback_robo.c: 14:     while (milissegundos > 0) {
  5829     0B70  0874               	movf	delay_ms_variavel@milissegundos,w
  5830     0B71  0475               	iorwf	delay_ms_variavel@milissegundos+1,w
  5831     0B72  1D03               	btfss	3,2
  5832     0B73  2B75               	goto	u3361
  5833     0B74  2B76               	goto	u3360
  5834     0B75                     u3361:
  5835     0B75  2B63               	goto	l2555
  5836     0B76                     u3360:
  5837     0B76                     l95:
  5838     0B76  0008               	return
  5839     0B77                     __end_of_delay_ms_variavel:
  5840                           
  5841                           	psect	text24
  5842     07C6                     __ptext24:	
  5843 ;; *************** function _comunicar_esp32_ler_comando_recebido *****************
  5844 ;; Defined at:
  5845 ;;		line 114 in file "comunicar_esp32.c"
  5846 ;; Parameters:    Size  Location     Type
  5847 ;;  buffer_desti    1    4[COMMON] PTR unsigned char 
  5848 ;;		 -> main@comando_recebido(32), 
  5849 ;;  tamanho_max_    1    5[COMMON] unsigned char 
  5850 ;; Auto vars:     Size  Location     Type
  5851 ;;  i               1    1[BANK0 ] unsigned char 
  5852 ;;  tamanho_coma    1    0[BANK0 ] unsigned char 
  5853 ;; Return value:  Size  Location     Type
  5854 ;;                  1    wreg      _Bool 
  5855 ;; Registers used:
  5856 ;;		wreg, fsr0l, fsr0h, status,2, status,0, btemp+1
  5857 ;; Tracked objects:
  5858 ;;		On entry : 0/0
  5859 ;;		On exit  : 0/0
  5860 ;;		Unchanged: 0/0
  5861 ;; Data sizes:     COMMON   BANK0   BANK1   BANK3   BANK2
  5862 ;;      Params:         2       0       0       0       0
  5863 ;;      Locals:         0       2       0       0       0
  5864 ;;      Temps:          1       0       0       0       0
  5865 ;;      Totals:         3       2       0       0       0
  5866 ;;Total ram usage:        5 bytes
  5867 ;; Hardware stack levels used: 1
  5868 ;; Hardware stack levels required when called: 1
  5869 ;; This function calls:
  5870 ;;		Nothing
  5871 ;; This function is called by:
  5872 ;;		_main
  5873 ;; This function uses a non-reentrant model
  5874 ;;
  5875                           
  5876     07C6                     _comunicar_esp32_ler_comando_recebido:	
  5877                           ;psect for function _comunicar_esp32_ler_comando_recebido
  5878                           
  5879     07C6                     l3213:	
  5880                           ;incstack = 0
  5881                           ; Regs used in _comunicar_esp32_ler_comando_recebido: [wreg-fsr0h+status,2+status,0+btem
      +                          p+1]
  5882                           
  5883                           
  5884                           ;comunicar_esp32.c: 115:     if (flag_comando_disponivel) {
  5885     07C6  0878               	movf	_flag_comando_disponivel,w	;volatile
  5886     07C7  1903               	btfsc	3,2
  5887     07C8  2FCA               	goto	u4781
  5888     07C9  2FCB               	goto	u4780
  5889     07CA                     u4781:
  5890     07CA  2FFD               	goto	l3241
  5891     07CB                     u4780:
  5892     07CB                     l3215:
  5893                           
  5894                           ;comunicar_esp32.c: 116:         INTCONbits.GIE = 0;
  5895     07CB  138B               	bcf	11,7	;volatile
  5896     07CC                     l3217:
  5897                           
  5898                           ;comunicar_esp32.c: 118:         unsigned char tamanho_comando = indice_buffer_rx_usart;
  5899     07CC  0879               	movf	_indice_buffer_rx_usart,w	;volatile
  5900     07CD  1283               	bcf	3,5	;RP0=0, select bank0
  5901     07CE  1303               	bcf	3,6	;RP1=0, select bank0
  5902     07CF  00A0               	movwf	comunicar_esp32_ler_comando_recebido@tamanho_comando
  5903                           
  5904                           ;comunicar_esp32.c: 119:         if (tamanho_comando >= tamanho_max_buffer) {
  5905     07D0  0875               	movf	comunicar_esp32_ler_comando_recebido@tamanho_max_buffer,w
  5906     07D1  0220               	subwf	comunicar_esp32_ler_comando_recebido@tamanho_comando,w
  5907     07D2  1C03               	skipc
  5908     07D3  2FD5               	goto	u4791
  5909     07D4  2FD6               	goto	u4790
  5910     07D5                     u4791:
  5911     07D5  2FD9               	goto	l3221
  5912     07D6                     u4790:
  5913     07D6                     l3219:
  5914                           
  5915                           ;comunicar_esp32.c: 120:             tamanho_comando = tamanho_max_buffer - 1;
  5916     07D6  0875               	movf	comunicar_esp32_ler_comando_recebido@tamanho_max_buffer,w
  5917     07D7  3EFF               	addlw	255
  5918     07D8  00A0               	movwf	comunicar_esp32_ler_comando_recebido@tamanho_comando
  5919     07D9                     l3221:
  5920                           
  5921                           ;comunicar_esp32.c: 123:         for (unsigned char i = 0; i < tamanho_comando; i++) {
  5922     07D9  01A1               	clrf	comunicar_esp32_ler_comando_recebido@i
  5923     07DA  2FEB               	goto	l3227
  5924     07DB                     l3223:
  5925                           
  5926                           ;comunicar_esp32.c: 124:             buffer_destino[i] = buffer_rx_usart[i];
  5927     07DB  0821               	movf	comunicar_esp32_ler_comando_recebido@i,w
  5928     07DC  3EA0               	addlw	(low (_buffer_rx_usart| 0))& (0+255)
  5929     07DD  0084               	movwf	4
  5930     07DE  1383               	bcf	3,7	;select IRP bank1
  5931     07DF  0800               	movf	0,w
  5932     07E0  00FF               	movwf	btemp+1
  5933     07E1  0821               	movf	comunicar_esp32_ler_comando_recebido@i,w
  5934     07E2  0774               	addwf	comunicar_esp32_ler_comando_recebido@buffer_destino,w
  5935     07E3  00F6               	movwf	??_comunicar_esp32_ler_comando_recebido
  5936     07E4  0876               	movf	??_comunicar_esp32_ler_comando_recebido,w
  5937     07E5  0084               	movwf	4
  5938     07E6  087F               	movf	btemp+1,w
  5939     07E7  1783               	bsf	3,7	;select IRP bank2
  5940     07E8  0080               	movwf	0
  5941     07E9                     l3225:
  5942                           
  5943                           ;comunicar_esp32.c: 125:         }
  5944     07E9  3001               	movlw	1
  5945     07EA  07A1               	addwf	comunicar_esp32_ler_comando_recebido@i,f
  5946     07EB                     l3227:
  5947     07EB  0820               	movf	comunicar_esp32_ler_comando_recebido@tamanho_comando,w
  5948     07EC  0221               	subwf	comunicar_esp32_ler_comando_recebido@i,w
  5949     07ED  1C03               	skipc
  5950     07EE  2FF0               	goto	u4801
  5951     07EF  2FF1               	goto	u4800
  5952     07F0                     u4801:
  5953     07F0  2FDB               	goto	l3223
  5954     07F1                     u4800:
  5955     07F1                     l3229:
  5956                           
  5957                           ;comunicar_esp32.c: 126:         buffer_destino[tamanho_comando] = '\0';
  5958     07F1  0820               	movf	comunicar_esp32_ler_comando_recebido@tamanho_comando,w
  5959     07F2  0774               	addwf	comunicar_esp32_ler_comando_recebido@buffer_destino,w
  5960     07F3  00F6               	movwf	??_comunicar_esp32_ler_comando_recebido
  5961     07F4  0876               	movf	??_comunicar_esp32_ler_comando_recebido,w
  5962     07F5  0084               	movwf	4
  5963     07F6  1783               	bsf	3,7	;select IRP bank2
  5964     07F7  0180               	clrf	0
  5965     07F8                     l3231:
  5966                           
  5967                           ;comunicar_esp32.c: 128:         indice_buffer_rx_usart = 0;
  5968     07F8  01F9               	clrf	_indice_buffer_rx_usart	;volatile
  5969     07F9                     l3233:
  5970                           
  5971                           ;comunicar_esp32.c: 129:         flag_comando_disponivel = 0;
  5972     07F9  01F8               	clrf	_flag_comando_disponivel	;volatile
  5973     07FA                     l3235:
  5974                           
  5975                           ;comunicar_esp32.c: 131:         INTCONbits.GIE = 1;
  5976     07FA  178B               	bsf	11,7	;volatile
  5977     07FB                     l3237:
  5978                           
  5979                           ;comunicar_esp32.c: 132:         return 1;
  5980     07FB  3001               	movlw	1
  5981     07FC  2FFE               	goto	l227
  5982     07FD                     l3241:
  5983                           
  5984                           ;comunicar_esp32.c: 134:     return 0;
  5985     07FD  3000               	movlw	0
  5986     07FE                     l227:
  5987     07FE  0008               	return
  5988     07FF                     __end_of_comunicar_esp32_ler_comando_recebido:
  5989                           
  5990                           	psect	text25
  5991     0BA3                     __ptext25:	
  5992 ;; *************** function _comunicar_esp32_enviar_string *****************
  5993 ;; Defined at:
  5994 ;;		line 104 in file "comunicar_esp32.c"
  5995 ;; Parameters:    Size  Location     Type
  5996 ;;  str             1    5[COMMON] PTR const unsigned char 
  5997 ;;		 -> STR_6(5), 
  5998 ;; Auto vars:     Size  Location     Type
  5999 ;;		None
  6000 ;; Return value:  Size  Location     Type
  6001 ;;                  1    wreg      void 
  6002 ;; Registers used:
  6003 ;;		wreg, fsr0l, fsr0h, status,2, status,0, pclath, cstack
  6004 ;; Tracked objects:
  6005 ;;		On entry : 0/0
  6006 ;;		On exit  : 0/0
  6007 ;;		Unchanged: 0/0
  6008 ;; Data sizes:     COMMON   BANK0   BANK1   BANK3   BANK2
  6009 ;;      Params:         1       0       0       0       0
  6010 ;;      Locals:         0       0       0       0       0
  6011 ;;      Temps:          0       0       0       0       0
  6012 ;;      Totals:         1       0       0       0       0
  6013 ;;Total ram usage:        1 bytes
  6014 ;; Hardware stack levels used: 1
  6015 ;; Hardware stack levels required when called: 2
  6016 ;; This function calls:
  6017 ;;		_comunicar_esp32_enviar_byte
  6018 ;; This function is called by:
  6019 ;;		_main
  6020 ;; This function uses a non-reentrant model
  6021 ;;
  6022                           
  6023     0BA3                     _comunicar_esp32_enviar_string:	
  6024                           ;psect for function _comunicar_esp32_enviar_string
  6025                           
  6026     0BA3                     l3269:	
  6027                           ;incstack = 0
  6028                           ; Regs used in _comunicar_esp32_enviar_string: [wreg-fsr0h+status,2+status,0+pclath+csta
      +                          ck]
  6029                           
  6030                           
  6031                           ;comunicar_esp32.c: 105:     while (*str) {
  6032     0BA3  2BB2               	goto	l3275
  6033     0BA4                     l3271:
  6034                           
  6035                           ;comunicar_esp32.c: 106:         comunicar_esp32_enviar_byte(*str++);
  6036     0BA4  0875               	movf	comunicar_esp32_enviar_string@str,w
  6037     0BA5  0084               	movwf	4
  6038     0BA6  120A  158A  2000  120A  158A  	fcall	stringdir
  6039     0BAB  120A  158A  2331  120A  158A  	fcall	_comunicar_esp32_enviar_byte
  6040     0BB0                     l3273:
  6041     0BB0  3001               	movlw	1
  6042     0BB1  07F5               	addwf	comunicar_esp32_enviar_string@str,f
  6043     0BB2                     l3275:
  6044                           
  6045                           ;comunicar_esp32.c: 105:     while (*str) {
  6046     0BB2  0875               	movf	comunicar_esp32_enviar_string@str,w
  6047     0BB3  0084               	movwf	4
  6048     0BB4  120A  158A  2000  120A  158A  	fcall	stringdir
  6049     0BB9  3A00               	xorlw	0
  6050     0BBA  1D03               	skipz
  6051     0BBB  2BBD               	goto	u4831
  6052     0BBC  2BBE               	goto	u4830
  6053     0BBD                     u4831:
  6054     0BBD  2BA4               	goto	l3271
  6055     0BBE                     u4830:
  6056     0BBE                     l216:
  6057     0BBE  0008               	return
  6058     0BBF                     __end_of_comunicar_esp32_enviar_string:
  6059                           
  6060                           	psect	text26
  6061     0B31                     __ptext26:	
  6062 ;; *************** function _comunicar_esp32_enviar_byte *****************
  6063 ;; Defined at:
  6064 ;;		line 99 in file "comunicar_esp32.c"
  6065 ;; Parameters:    Size  Location     Type
  6066 ;;  dado            1    wreg     unsigned char 
  6067 ;; Auto vars:     Size  Location     Type
  6068 ;;  dado            1    4[COMMON] unsigned char 
  6069 ;; Return value:  Size  Location     Type
  6070 ;;                  1    wreg      void 
  6071 ;; Registers used:
  6072 ;;		wreg
  6073 ;; Tracked objects:
  6074 ;;		On entry : 0/0
  6075 ;;		On exit  : 0/0
  6076 ;;		Unchanged: 0/0
  6077 ;; Data sizes:     COMMON   BANK0   BANK1   BANK3   BANK2
  6078 ;;      Params:         0       0       0       0       0
  6079 ;;      Locals:         1       0       0       0       0
  6080 ;;      Temps:          0       0       0       0       0
  6081 ;;      Totals:         1       0       0       0       0
  6082 ;;Total ram usage:        1 bytes
  6083 ;; Hardware stack levels used: 1
  6084 ;; Hardware stack levels required when called: 1
  6085 ;; This function calls:
  6086 ;;		Nothing
  6087 ;; This function is called by:
  6088 ;;		_comunicar_esp32_enviar_string
  6089 ;; This function uses a non-reentrant model
  6090 ;;
  6091                           
  6092     0B31                     _comunicar_esp32_enviar_byte:	
  6093                           ;psect for function _comunicar_esp32_enviar_byte
  6094                           
  6095                           
  6096                           ;incstack = 0
  6097                           ; Regs used in _comunicar_esp32_enviar_byte: [wreg]
  6098                           ;comunicar_esp32_enviar_byte@dado stored from wreg
  6099     0B31  00F4               	movwf	comunicar_esp32_enviar_byte@dado
  6100     0B32                     l3195:
  6101     0B32                     l207:	
  6102                           ;comunicar_esp32.c: 100:     while (!TXSTAbits.TRMT);
  6103                           
  6104     0B32  1683               	bsf	3,5	;RP0=1, select bank1
  6105     0B33  1303               	bcf	3,6	;RP1=0, select bank1
  6106     0B34  1C98               	btfss	24,1	;volatile
  6107     0B35  2B37               	goto	u4771
  6108     0B36  2B38               	goto	u4770
  6109     0B37                     u4771:
  6110     0B37  2B32               	goto	l207
  6111     0B38                     u4770:
  6112     0B38                     l3197:
  6113                           
  6114                           ;comunicar_esp32.c: 101:     TXREG = dado;
  6115     0B38  0874               	movf	comunicar_esp32_enviar_byte@dado,w
  6116     0B39  1283               	bcf	3,5	;RP0=0, select bank0
  6117     0B3A  1303               	bcf	3,6	;RP1=0, select bank0
  6118     0B3B  0099               	movwf	25	;volatile
  6119     0B3C                     l210:
  6120     0B3C  0008               	return
  6121     0B3D                     __end_of_comunicar_esp32_enviar_byte:
  6122                           
  6123                           	psect	text27
  6124     0B00                     __ptext27:	
  6125 ;; *************** function _comunicar_esp32_comando_recebido_disponivel *****************
  6126 ;; Defined at:
  6127 ;;		line 110 in file "comunicar_esp32.c"
  6128 ;; Parameters:    Size  Location     Type
  6129 ;;		None
  6130 ;; Auto vars:     Size  Location     Type
  6131 ;;		None
  6132 ;; Return value:  Size  Location     Type
  6133 ;;                  1    wreg      _Bool 
  6134 ;; Registers used:
  6135 ;;		wreg
  6136 ;; Tracked objects:
  6137 ;;		On entry : 0/0
  6138 ;;		On exit  : 0/0
  6139 ;;		Unchanged: 0/0
  6140 ;; Data sizes:     COMMON   BANK0   BANK1   BANK3   BANK2
  6141 ;;      Params:         0       0       0       0       0
  6142 ;;      Locals:         0       0       0       0       0
  6143 ;;      Temps:          0       0       0       0       0
  6144 ;;      Totals:         0       0       0       0       0
  6145 ;;Total ram usage:        0 bytes
  6146 ;; Hardware stack levels used: 1
  6147 ;; Hardware stack levels required when called: 1
  6148 ;; This function calls:
  6149 ;;		Nothing
  6150 ;; This function is called by:
  6151 ;;		_main
  6152 ;; This function uses a non-reentrant model
  6153 ;;
  6154                           
  6155     0B00                     _comunicar_esp32_comando_recebido_disponivel:	
  6156                           ;psect for function _comunicar_esp32_comando_recebido_disponivel
  6157                           
  6158     0B00                     l3207:	
  6159                           ;incstack = 0
  6160                           ; Regs used in _comunicar_esp32_comando_recebido_disponivel: [wreg]
  6161                           
  6162                           
  6163                           ;comunicar_esp32.c: 111:     return flag_comando_disponivel;
  6164     0B00  0878               	movf	_flag_comando_disponivel,w	;volatile
  6165     0B01                     l219:
  6166     0B01  0008               	return
  6167     0B02                     __end_of_comunicar_esp32_comando_recebido_disponivel:
  6168                           
  6169                           	psect	text28
  6170     0CB4                     __ptext28:	
  6171 ;; *************** function _usart_isr *****************
  6172 ;; Defined at:
  6173 ;;		line 22 in file "comunicar_esp32.c"
  6174 ;; Parameters:    Size  Location     Type
  6175 ;;		None
  6176 ;; Auto vars:     Size  Location     Type
  6177 ;;  byte_recebid    1    3[COMMON] unsigned char 
  6178 ;; Return value:  Size  Location     Type
  6179 ;;                  1    wreg      void 
  6180 ;; Registers used:
  6181 ;;		wreg, fsr0l, fsr0h, status,2, status,0
  6182 ;; Tracked objects:
  6183 ;;		On entry : 0/0
  6184 ;;		On exit  : 0/0
  6185 ;;		Unchanged: 0/0
  6186 ;; Data sizes:     COMMON   BANK0   BANK1   BANK3   BANK2
  6187 ;;      Params:         0       0       0       0       0
  6188 ;;      Locals:         1       0       0       0       0
  6189 ;;      Temps:          3       0       0       0       0
  6190 ;;      Totals:         4       0       0       0       0
  6191 ;;Total ram usage:        4 bytes
  6192 ;; Hardware stack levels used: 1
  6193 ;; This function calls:
  6194 ;;		Nothing
  6195 ;; This function is called by:
  6196 ;;		Interrupt level 1
  6197 ;; This function uses a non-reentrant model
  6198 ;;
  6199                           
  6200     0CB4                     _usart_isr:	
  6201                           ;psect for function _usart_isr
  6202                           
  6203     0CB4                     i1l2461:
  6204                           
  6205                           ;comunicar_esp32.c: 24:     if (PIE1bits.RCIE && PIR1bits.RCIF) {
  6206     0CB4  1683               	bsf	3,5	;RP0=1, select bank1
  6207     0CB5  1303               	bcf	3,6	;RP1=0, select bank1
  6208     0CB6  1E8C               	btfss	12,5	;volatile
  6209     0CB7  2CB9               	goto	u325_21
  6210     0CB8  2CBA               	goto	u325_20
  6211     0CB9                     u325_21:
  6212     0CB9  2CFC               	goto	i1l196
  6213     0CBA                     u325_20:
  6214     0CBA                     i1l2463:
  6215     0CBA  1283               	bcf	3,5	;RP0=0, select bank0
  6216     0CBB  1303               	bcf	3,6	;RP1=0, select bank0
  6217     0CBC  1E8C               	btfss	12,5	;volatile
  6218     0CBD  2CBF               	goto	u326_21
  6219     0CBE  2CC0               	goto	u326_20
  6220     0CBF                     u326_21:
  6221     0CBF  2CFC               	goto	i1l196
  6222     0CC0                     u326_20:
  6223     0CC0                     i1l2465:
  6224                           
  6225                           ;comunicar_esp32.c: 25:         char byte_recebido;;comunicar_esp32.c: 28:         if (R
      +                          CSTAbits.OERR) {
  6226     0CC0  1C98               	btfss	24,1	;volatile
  6227     0CC1  2CC3               	goto	u327_21
  6228     0CC2  2CC4               	goto	u327_20
  6229     0CC3                     u327_21:
  6230     0CC3  2CC6               	goto	i1l185
  6231     0CC4                     u327_20:
  6232     0CC4                     i1l2467:
  6233                           
  6234                           ;comunicar_esp32.c: 29:             RCSTAbits.CREN = 0;
  6235     0CC4  1218               	bcf	24,4	;volatile
  6236                           
  6237                           ;comunicar_esp32.c: 30:             RCSTAbits.CREN = 1;
  6238     0CC5  1618               	bsf	24,4	;volatile
  6239     0CC6                     i1l185:	
  6240                           ;comunicar_esp32.c: 31:         }
  6241                           
  6242                           
  6243                           ;comunicar_esp32.c: 34:         if (RCSTAbits.FERR) {
  6244     0CC6  0818               	movf	24,w	;volatile
  6245     0CC7                     i1l2469:
  6246                           
  6247                           ;comunicar_esp32.c: 35:             byte_recebido = RCREG;
  6248     0CC7  081A               	movf	26,w	;volatile
  6249     0CC8  00F3               	movwf	usart_isr@byte_recebido
  6250     0CC9                     i1l2473:	
  6251                           ;comunicar_esp32.c: 36:         } else {
  6252                           
  6253                           
  6254                           ;comunicar_esp32.c: 40:         if (!flag_comando_disponivel) {
  6255     0CC9  0878               	movf	_flag_comando_disponivel,w	;volatile
  6256     0CCA  1D03               	btfss	3,2
  6257     0CCB  2CCD               	goto	u328_21
  6258     0CCC  2CCE               	goto	u328_20
  6259     0CCD                     u328_21:
  6260     0CCD  2CFC               	goto	i1l196
  6261     0CCE                     u328_20:
  6262     0CCE                     i1l2475:
  6263                           
  6264                           ;comunicar_esp32.c: 41:             if (byte_recebido == '\r') {
  6265     0CCE  300D               	movlw	13
  6266     0CCF  0673               	xorwf	usart_isr@byte_recebido,w
  6267     0CD0  1D03               	btfss	3,2
  6268     0CD1  2CD3               	goto	u329_21
  6269     0CD2  2CD4               	goto	u329_20
  6270     0CD3                     u329_21:
  6271     0CD3  2CE6               	goto	i1l2487
  6272     0CD4                     u329_20:
  6273     0CD4                     i1l2477:
  6274                           
  6275                           ;comunicar_esp32.c: 42:                 if (indice_buffer_rx_usart < 32) {
  6276     0CD4  3020               	movlw	32
  6277     0CD5  0279               	subwf	_indice_buffer_rx_usart,w	;volatile
  6278     0CD6  1803               	skipnc
  6279     0CD7  2CD9               	goto	u330_21
  6280     0CD8  2CDA               	goto	u330_20
  6281     0CD9                     u330_21:
  6282     0CD9  2CE2               	goto	i1l2483
  6283     0CDA                     u330_20:
  6284     0CDA                     i1l2479:
  6285                           
  6286                           ;comunicar_esp32.c: 43:                     buffer_rx_usart[indice_buffer_rx_usart] = '\
      +                          0';
  6287     0CDA  0879               	movf	_indice_buffer_rx_usart,w
  6288     0CDB  3EA0               	addlw	(low (_buffer_rx_usart| 0))& (0+255)
  6289     0CDC  0084               	movwf	4
  6290     0CDD  1383               	bcf	3,7	;select IRP bank1
  6291     0CDE  0180               	clrf	0
  6292     0CDF                     i1l2481:
  6293                           
  6294                           ;comunicar_esp32.c: 44:                     flag_comando_disponivel = 1;
  6295     0CDF  3001               	movlw	1
  6296     0CE0  00F8               	movwf	_flag_comando_disponivel	;volatile
  6297                           
  6298                           ;comunicar_esp32.c: 45:                 } else {
  6299     0CE1  2CFC               	goto	i1l196
  6300     0CE2                     i1l2483:
  6301                           
  6302                           ;comunicar_esp32.c: 46:                     buffer_rx_usart[32 - 1] = '\0';
  6303     0CE2  1683               	bsf	3,5	;RP0=1, select bank1
  6304     0CE3  1303               	bcf	3,6	;RP1=0, select bank1
  6305     0CE4  01BF               	clrf	(_buffer_rx_usart^(0+128)+31)	;volatile
  6306     0CE5  2CDF               	goto	i1l2481
  6307     0CE6                     i1l2487:
  6308     0CE6  300D               	movlw	13
  6309     0CE7  0673               	xorwf	usart_isr@byte_recebido,w
  6310     0CE8  1D03               	btfss	3,2
  6311     0CE9  2CEB               	goto	u331_21
  6312     0CEA  2CEC               	goto	u331_20
  6313     0CEB                     u331_21:
  6314     0CEB  2CED               	goto	i1l2491
  6315     0CEC                     u331_20:
  6316     0CEC  2CFC               	goto	i1l196
  6317     0CED                     i1l2491:
  6318     0CED  301F               	movlw	31
  6319     0CEE  0279               	subwf	_indice_buffer_rx_usart,w	;volatile
  6320     0CEF  1803               	skipnc
  6321     0CF0  2CF2               	goto	u332_21
  6322     0CF1  2CF3               	goto	u332_20
  6323     0CF2                     u332_21:
  6324     0CF2  2CFC               	goto	i1l188
  6325     0CF3                     u332_20:
  6326     0CF3                     i1l2493:
  6327                           
  6328                           ;comunicar_esp32.c: 52:                 buffer_rx_usart[indice_buffer_rx_usart++] = byte
      +                          _recebido;
  6329     0CF3  0879               	movf	_indice_buffer_rx_usart,w
  6330     0CF4  3EA0               	addlw	(low (_buffer_rx_usart| 0))& (0+255)
  6331     0CF5  0084               	movwf	4
  6332     0CF6  0873               	movf	usart_isr@byte_recebido,w
  6333     0CF7  1383               	bcf	3,7	;select IRP bank1
  6334     0CF8  0080               	movwf	0
  6335     0CF9                     i1l2495:
  6336     0CF9  3001               	movlw	1
  6337     0CFA  07F9               	addwf	_indice_buffer_rx_usart,f	;volatile
  6338     0CFB  2CFC               	goto	i1l196
  6339     0CFC                     i1l188:	
  6340                           ;comunicar_esp32.c: 54:         }
  6341                           
  6342     0CFC                     i1l196:
  6343     0CFC  0872               	movf	??_usart_isr+2,w
  6344     0CFD  008A               	movwf	10
  6345     0CFE  0871               	movf	??_usart_isr+1,w
  6346     0CFF  0084               	movwf	4
  6347     0D00  0E70               	swapf	??_usart_isr,w
  6348     0D01  0083               	movwf	3
  6349     0D02  0EFE               	swapf	btemp,f
  6350     0D03  0E7E               	swapf	btemp,w
  6351     0D04  0009               	retfie
  6352     0D05                     __end_of_usart_isr:
  6353     0002                     ___latbits      equ	2
  6354     007E                     btemp           set	126	;btemp
  6355     007E                     wtemp0          set	126
  6356                           
  6357                           	psect	intentry
  6358     0004                     __pintentry:	
  6359                           ;incstack = 0
  6360                           ; Regs used in _usart_isr: [wreg-fsr0h+status,2+status,0]
  6361                           
  6362     0004                     interrupt_function:
  6363     007E                     saved_w         set	btemp
  6364     0004  00FE               	movwf	btemp
  6365     0005  0E03               	swapf	3,w
  6366     0006  00F0               	movwf	??_usart_isr
  6367     0007  0804               	movf	4,w
  6368     0008  00F1               	movwf	??_usart_isr+1
  6369     0009  080A               	movf	10,w
  6370     000A  00F2               	movwf	??_usart_isr+2
  6371     000B  120A  158A  2CB4   	ljmp	_usart_isr
  6372                           
  6373                           	psect	config
  6374                           
  6375                           ;Config register CONFIG @ 0x2007
  6376                           ;	Oscillator Selection bits
  6377                           ;	FOSC = HS, HS oscillator
  6378                           ;	Watchdog Timer Enable bit
  6379                           ;	WDTE = OFF, WDT disabled
  6380                           ;	Power-up Timer Enable bit
  6381                           ;	PWRTE = OFF, PWRT disabled
  6382                           ;	Brown-out Reset Enable bit
  6383                           ;	BOREN = OFF, BOR disabled
  6384                           ;	Low-Voltage (Single-Supply) In-Circuit Serial Programming Enable bit
  6385                           ;	LVP = OFF, RB3 is digital I/O, HV on MCLR must be used for programming
  6386                           ;	Data EEPROM Memory Code Protection bit
  6387                           ;	CPD = OFF, Data EEPROM code protection off
  6388                           ;	Flash Program Memory Write Enable bits
  6389                           ;	WRT = OFF, Write protection off; all program memory may be written to by EECON control
  6390                           ;	In-Circuit Debugger Mode bit
  6391                           ;	DEBUG = 0x1, unprogrammed default
  6392                           ;	Flash Program Memory Code Protection bit
  6393                           ;	CP = OFF, Code protection off
  6394     2007                     	org	8199
  6395     2007  3F3A               	dw	16186

Data Sizes:
    Strings     38
    Constant    0
    Data        0
    BSS         34
    Persistent  0
    Stack       0

Auto Spaces:
    Space          Size  Autos    Used
    COMMON           14      8      10
    BANK0            80     80      80
    BANK1            80     18      50
    BANK3            96     32      32
    BANK2            96      0       0

Pointer List with Targets:

    comunicar_esp32_enviar_string@str	PTR const unsigned char  size(1) Largest target is 5
		 -> STR_6(CODE[5]), 

    comunicar_esp32_ler_comando_recebido@buffer_destino	PTR unsigned char  size(1) Largest target is 32
		 -> main@comando_recebido(BANK3[32]), 

    strcmp@l	PTR const unsigned char  size(1) Largest target is 32
		 -> main@comando_recebido(BANK3[32]), 

    strcmp@r	PTR const unsigned char  size(1) Largest target is 9
		 -> STR_1(CODE[7]), STR_2(CODE[3]), STR_3(CODE[8]), STR_4(CODE[9]), 
		 -> STR_5(CODE[6]), 


Critical Paths under _main in COMMON

    _main->_strcmp
    _comunicar_esp32_inicializar_usart->___xxtofl
    ___fltol->___xxtofl
    ___flmul->__Umul8_16
    ___flmul->___xxtofl
    ___fldiv->___xxtofl
    ___fladd->___xxtofl
    _feedback_indicar_sistema_pronto->_feedback_led_rgb_definir_cor
    _feedback_indicar_movimento_andamento->_feedback_led_rgb_definir_cor
    _feedback_indicar_comunicacao_uart->_feedback_led_rgb_definir_cor
    _feedback_buzzer_controlar->_delay_ms_variavel
    _comunicar_esp32_enviar_string->_comunicar_esp32_enviar_byte

Critical Paths under _usart_isr in COMMON

    None.

Critical Paths under _main in BANK0

    _comunicar_esp32_inicializar_usart->___fltol
    ___fltol->___fladd
    ___flmul->___xxtofl
    ___fldiv->___flmul
    ___fladd->___fldiv
    _feedback_indicar_sistema_pronto->_feedback_buzzer_controlar
    _feedback_indicar_comunicacao_uart->_feedback_buzzer_controlar

Critical Paths under _usart_isr in BANK0

    None.

Critical Paths under _main in BANK1

    _inicializar_sistema->_comunicar_esp32_inicializar_usart
    _comunicar_esp32_inicializar_usart->___fltol
    ___fltol->___fladd

Critical Paths under _usart_isr in BANK1

    None.

Critical Paths under _main in BANK3

    None.

Critical Paths under _usart_isr in BANK3

    None.

Critical Paths under _main in BANK2

    None.

Critical Paths under _usart_isr in BANK2

    None.

Call Graph Tables:

 ---------------------------------------------------------------------------------
 (Depth) Function   	        Calls       Base Space   Used Autos Params    Refs
 ---------------------------------------------------------------------------------
 (0) _main                                                32    32      0    9442
                                              0 BANK3     32    32      0
_comunicar_esp32_comando_recebido_di
      _comunicar_esp32_enviar_string
_comunicar_esp32_ler_comando_recebid
  _feedback_indicar_comunicacao_uart
_feedback_indicar_movimento_andament
    _feedback_indicar_sistema_pronto
                _inicializar_sistema
                     _motores_frente
                _motores_parar_freio
                         _motores_re
              _motores_virar_direita
             _motores_virar_esquerda
                             _strcmp
 ---------------------------------------------------------------------------------
 (2) _strcmp                                               4     2      2     191
                                              4 COMMON     4     2      2
 ---------------------------------------------------------------------------------
 (1) _motores_virar_esquerda                               0     0      0       0
 ---------------------------------------------------------------------------------
 (1) _motores_virar_direita                                0     0      0       0
 ---------------------------------------------------------------------------------
 (1) _motores_re                                           0     0      0       0
 ---------------------------------------------------------------------------------
 (1) _motores_frente                                       0     0      0       0
 ---------------------------------------------------------------------------------
 (1) _inicializar_sistema                                  0     0      0    8042
  _comunicar_esp32_inicializar_usart
               _feedback_inicializar
                  _inicializar_motor
 ---------------------------------------------------------------------------------
 (2) _inicializar_motor                                    0     0      0       0
                _motores_parar_freio
 ---------------------------------------------------------------------------------
 (1) _motores_parar_freio                                  0     0      0       0
 ---------------------------------------------------------------------------------
 (2) _feedback_inicializar                                 0     0      0       0
 ---------------------------------------------------------------------------------
 (2) _comunicar_esp32_inicializar_usart                    7     3      4    8042
                                             12 BANK1      6     2      4
                            ___fladd
                            ___fldiv
                            ___flmul
                            ___fltol
                           ___xxtofl
 ---------------------------------------------------------------------------------
 (3) ___xxtofl                                            14    10      4     511
                                              4 COMMON     4     0      4
                                              0 BANK0     10    10      0
 ---------------------------------------------------------------------------------
 (3) ___fltol                                             10     6      4     340
                                             78 BANK0      2     2      0
                                              4 BANK1      8     4      4
                            ___fladd (ARG)
                            ___fldiv (ARG)
                            ___flmul (ARG)
                           ___xxtofl (ARG)
 ---------------------------------------------------------------------------------
 (3) ___flmul                                             26    18      8    2434
                                             10 BANK0     26    18      8
                          __Umul8_16
                           ___xxtofl (ARG)
 ---------------------------------------------------------------------------------
 (4) __Umul8_16                                            9     7      2     232
                                              4 COMMON     4     2      2
                                              0 BANK0      5     5      0
 ---------------------------------------------------------------------------------
 (3) ___fldiv                                             26    18      8    1692
                                             36 BANK0     26    18      8
                            ___flmul (ARG)
                           ___xxtofl (ARG)
 ---------------------------------------------------------------------------------
 (3) ___fladd                                             20    12      8    2954
                                             62 BANK0     16     8      8
                                              0 BANK1      4     4      0
                            ___fldiv (ARG)
                            ___flmul (ARG)
                           ___xxtofl (ARG)
 ---------------------------------------------------------------------------------
 (1) _feedback_indicar_sistema_pronto                      0     0      0     256
          _feedback_buzzer_controlar
       _feedback_led_rgb_definir_cor
 ---------------------------------------------------------------------------------
 (1) _feedback_indicar_movimento_andamento                 0     0      0      47
              _feedback_buzzer_parar
       _feedback_led_rgb_definir_cor
 ---------------------------------------------------------------------------------
 (2) _feedback_buzzer_parar                                0     0      0       0
 ---------------------------------------------------------------------------------
 (1) _feedback_indicar_comunicacao_uart                    0     0      0     256
          _feedback_buzzer_controlar
       _feedback_led_rgb_definir_cor
 ---------------------------------------------------------------------------------
 (2) _feedback_led_rgb_definir_cor                         3     3      0      47
                                              4 COMMON     3     3      0
 ---------------------------------------------------------------------------------
 (2) _feedback_buzzer_controlar                           12     7      5     209
                                              0 BANK0     10     5      5
                  _delay_ms_variavel
 ---------------------------------------------------------------------------------
 (3) _delay_ms_variavel                                    3     1      2      40
                                              4 COMMON     3     1      2
 ---------------------------------------------------------------------------------
 (1) _comunicar_esp32_ler_comando_recebido                 5     3      2     328
                                              4 COMMON     3     1      2
                                              0 BANK0      2     2      0
 ---------------------------------------------------------------------------------
 (1) _comunicar_esp32_enviar_string                        1     0      1     115
                                              5 COMMON     1     0      1
        _comunicar_esp32_enviar_byte
 ---------------------------------------------------------------------------------
 (2) _comunicar_esp32_enviar_byte                          1     1      0      47
                                              4 COMMON     1     1      0
 ---------------------------------------------------------------------------------
 (1) _comunicar_esp32_comando_recebido_disponivel          0     0      0       0
 ---------------------------------------------------------------------------------
 Estimated maximum stack depth 4
 ---------------------------------------------------------------------------------
 (Depth) Function   	        Calls       Base Space   Used Autos Params    Refs
 ---------------------------------------------------------------------------------
 (5) _usart_isr                                            4     4      0      68
                                              0 COMMON     4     4      0
 ---------------------------------------------------------------------------------
 Estimated maximum stack depth 5
 ---------------------------------------------------------------------------------

 Call Graph Graphs:

 _main (ROOT)
   _comunicar_esp32_comando_recebido_disponivel
   _comunicar_esp32_enviar_string
     _comunicar_esp32_enviar_byte
   _comunicar_esp32_ler_comando_recebido
   _feedback_indicar_comunicacao_uart
     _feedback_buzzer_controlar
       _delay_ms_variavel
     _feedback_led_rgb_definir_cor
   _feedback_indicar_movimento_andamento
     _feedback_buzzer_parar
     _feedback_led_rgb_definir_cor
   _feedback_indicar_sistema_pronto
     _feedback_buzzer_controlar
     _feedback_led_rgb_definir_cor
   _inicializar_sistema
     _comunicar_esp32_inicializar_usart
       ___fladd
         ___fldiv (ARG)
           ___flmul (ARG)
             __Umul8_16
             ___xxtofl (ARG)
           ___xxtofl (ARG)
         ___flmul (ARG)
         ___xxtofl (ARG)
       ___fldiv
       ___flmul
       ___fltol
         ___fladd (ARG)
         ___fldiv (ARG)
         ___flmul (ARG)
         ___xxtofl (ARG)
       ___xxtofl
     _feedback_inicializar
     _inicializar_motor
       _motores_parar_freio
   _motores_frente
   _motores_parar_freio
   _motores_re
   _motores_virar_direita
   _motores_virar_esquerda
   _strcmp

 _usart_isr (ROOT)

Address spaces:
Name               Size   Autos  Total    Usage
BITCOMMON           14      0       0      0.0%
BITBANK0            80      0       0      0.0%
BITBANK1            80      0       0      0.0%
BITBANK3            96      0       0      0.0%
BITBANK2            96      0       0      0.0%
COMMON              14      8      10     71.4%
BANK0               80     80      80    100.0%
BANK1               80     18      50     62.5%
BANK3               96     32      32     33.3%
BANK2               96      0       0      0.0%
STACK                0      0       0      0.0%
DATA                 0      0     172      0.0%


Microchip Technology PIC Macro Assembler V3.00 build 20241204225717 
Symbol Table                                                                                   Sun Jun 15 12:16:56 2025

                                          ___fldiv@aexp 005D  
                          ?_comunicar_esp32_enviar_byte 0070  
                                          ___fldiv@bexp 005C  
                                                     pc 0002  
                                          ___fldiv@sign 0055  
                                                    l37 0BDE  
                                                    l71 0B0C  
                                                    l80 0B21  
                                                    l48 0E2B  
                                                    l65 0B54  
                                                    l74 0B13  
                                                    l83 0B28  
                                                    l77 0B1A  
                                                    l95 0B76  
                                                    l98 0B61  
                                                    fsr 0004  
     comunicar_esp32_inicializar_usart@spbrg_valor_calc 00D0  
                      comunicar_esp32_enviar_string@str 0075  
                                   __Umul8_16@word_mpld 0022  
                                                   l102 0C3F  
                                                   l104 0C41  
                                                   l112 0C74  
                                                   l200 06EB  
                                                   l121 0C9B  
                                                   l105 0C43  
                                                   l210 0B3C  
                                                   l122 0CB3  
                                                   l106 0C45  
                                                   l107 0C48  
                                                   l131 0BA2  
                                                   l116 0C7D  
                                                   l108 0C4B  
                                                   l140 0B8C  
                                                   l204 070F  
                                                   l109 0C4E  
                                                   l125 0B05  
                                                   l118 0C8B  
                                                   l207 0B32  
                                                   l119 0C99  
                                                   l216 0BBE  
                                                   l137 0B48  
                                                   l219 0B01  
                                                   l227 07FE  
                                                   l514 0D79  
                                                   l507 0D90  
                                                   l620 046D  
                                                   l517 0D90  
                                                   l614 03E1  
                                                   l710 0361  
                                                   l609 039F  
                                                   l618 049D  
                                                   l722 0357  
                                                   l635 057A  
                                                   l627 0651  
                                                   l731 0C07  
                                                   l716 02D3  
                                                   l645 05D1  
                                                   l670 0E8B  
                                                   l639 05A7  
                                                   l656 063F  
                                                   l648 0615  
                                                   l672 0FFF  
                                                   l760 0773  
                                                   l657 0651  
                                                   l729 0BF5  
                                                   l754 0734  
                                                   l755 0745  
                                                   l692 0FEB  
                                                   l756 07C5  
                                                   l694 0FF7  
                                                   l686 0F79  
                                                   l767 078F  
                                                   l768 079B  
                                                   l777 0C37  
                         ?_feedback_led_rgb_definir_cor 0070  
                                                   fsr0 0004  
                                                   indf 0000  
                                          ___flmul@aexp 0038  
                                          ___flmul@bexp 003D  
                        ?_comunicar_esp32_enviar_string 0075  
                                          ___flmul@sign 0037  
                                          ___flmul@temp 0042  
                                          ___flmul@prod 003E  
                                      ??_motores_frente 0074  
                                          ___fltol@exp1 006F  
                                                  l3001 0151  
                                                  l3011 01CD  
                                                  l3003 016E  
                                                  l3021 027F  
                                                  l3013 01F8  
                                                  l3005 017C  
                                                  l3101 077A  
                                                  l3031 02A4  
                                                  l3023 0288  
                                                  l3015 0206  
                                                  l3007 0199  
                                                  l3111 07B3  
                                                  l3103 0785  
                                                  l3041 02BC  
                                                  l3033 02AD  
                                                  l3025 0296  
                                                  l3017 0231  
                                                  l3009 01B0  
                                                  l3113 07B8  
                                                  l3105 0789  
                                                  l3121 0B49  
                                                  l3201 0BC5  
                                                  l3211 0B77  
                                                  l3051 02EB  
                                                  l3043 02D0  
                                                  l3027 029F  
                                                  l3035 02B3  
                                                  l3019 0257  
                                                  l3115 07BC  
                                                  l3107 0793  
                                                  l3131 066A  
                                                  l3123 0B4F  
                                                  l3203 0BCF  
                                                  l3221 07D9  
                                                  l3213 07C6  
                                                  l3205 0B8D  
                                                  l3061 0326  
                                                  l3053 02EF  
                                                  l3037 02B7  
                                                  l3029 02A3  
                                                  l3117 07BD  
                                                  l3109 079D  
                                                  l3141 06F4  
                                                  l3133 06E5  
                                                  l3125 0B55  
                                                  l3301 0DF6  
                                                  l3207 0B00  
                                                  l3231 07F8  
                                                  l3223 07DB  
                                                  l3215 07CB  
                                                  l3071 0351  
                                                  l3063 0335  
                                                  l3055 0308  
                                                  l3047 02D8  
                                                  l3039 02B8  
                                                  l3151 06FD  
                                                  l3143 06F7  
                                                  l3135 06ED  
                                                  l3127 0652  
                                                  l3311 0E11  
                                                  l3233 07F9  
                                                  l3225 07E9  
                                                  l3217 07CC  
                                                  l3241 07FD  
                                                  l2601 0372  
                                                  l3073 0352  
                                                  l3065 033F  
                                                  l3049 02DD  
                                                  l3057 030E  
                                                  l3081 0718  
                                                  l3161 070A  
                                                  l3153 06FE  
                                                  l3145 06FA  
                                                  l3137 06EE  
                                                  l3129 0657  
                                                  l3313 0E20  
                                                  l3305 0DFC  
                                                  l3235 07FA  
                                                  l3227 07EB  
                                                  l3219 07D6  
                                                  l2611 0391  
                                                  l2603 0378  
                                                  l3075 0359  
                                                  l3067 0341  
                                                  l3059 031B  
                                                  l3091 0748  
                                                  l3083 071C  
                                                  l3163 070E  
                                                  l3155 0704  
                                                  l3147 06FB  
                                                  l3139 06F1  
                                                  l3251 0C1E  
                                                  l3315 0E25  
                                                  l3307 0E0B  
                                                  l3237 07FB  
                                                  l3229 07F1  
                                                  l3181 0C8C  
                                                  l3165 0C39  
                                                  l3261 0B43  
                                                  l2701 04B1  
                                                  l2621 03AB  
                                                  l2613 0393  
                                                  l2605 037B  
                                                  l2541 0BEB  
                                                  l3069 034D  
                                                  l3093 0753  
                                                  l3085 072C  
                                                  l3157 0705  
                                                  l3149 06FC  
                                                  l3253 0C25  
                                                  l3245 0C08  
                                                  l3317 0E2B  
                                                  l3271 0BA4  
                                                  l3183 0C95  
                                                  l3175 0C78  
                                                  l2711 04E1  
                                                  l2703 04CA  
                                                  l2631 03C4  
                                                  l2623 03AC  
                                                  l2607 0382  
                                                  l2615 0395  
                                                  l2543 0BEF  
                                                  l3095 075A  
                                                  l3087 073C  
                                                  l3079 0713  
                                                  l3159 0709  
                                                  l2551 0B06  
                                                  l3263 0B14  
                                                  l3247 0C09  
                                                  l3273 0BB0  
                                                  l2553 0B62  
                                                  l3177 0C7E  
                                                  l3169 0C52  
                                                  l3193 0B02  
                                                  l2721 0511  
                                                  l2713 04E7  
                                                  l2705 04CE  
                                                  l2641 03E9  
                                                  l2633 03C9  
                                                  l2625 03B4  
                                                  l2617 03A3  
                                                  l2609 0387  
                                                  l2801 0E44  
                                                  l2545 0BFE  
                                                  l2537 0BE2  
                                                  l2561 0D12  
                                                  l3097 075C  
                                                  l3257 0B0D  
                                                  l3265 0B1B  
                                                  l3249 0C0D  
                                                  l3281 0D9B  
                                                  l3195 0B32  
                                                  l3275 0BB2  
                                                  l2555 0B63  
                                                  l3179 0C87  
                                                  l3187 0C9D  
                                                  l3259 0B3D  
                                                  l2723 054F  
                                                  l2731 056C  
                                                  l2715 04EA  
                                                  l2707 04D4  
                                                  l2651 03F5  
                                                  l2643 03ED  
                                                  l2635 03D3  
                                                  l2627 03BA  
                                                  l2619 03A5  
                                                  l2811 0E58  
                                                  l2803 0E45  
                                                  l2547 0C03  
                                                  l2539 0BE4  
                                                  l2571 0D3F  
                                                  l3099 076A  
                                                  l3267 0B22  
                                                  l3291 0DCC  
                                                  l3283 0DA5  
                                                  l3197 0B38  
                                                  l3269 0BA3  
                                                  l2557 0B70  
                                                  l3381 0CA5  
                                                  l2741 059E  
                                                  l2733 0583  
                                                  l2725 0553  
                                                  l2717 04F4  
                                                  l2709 04DF  
                                                  l2661 040D  
                                                  l2653 03FB  
                                                  l2645 03EF  
                                                  l2637 03D5  
                                                  l2629 03BD  
                                                  l2901 0F76  
                                                  l2821 0E6D  
                                                  l2805 0E4A  
                                                  l2813 0E5A  
                                                  l2581 0D4F  
                                                  l2573 0D43  
                                                  l2565 0D1D  
                                                  l3293 0DD2  
                                                  l3285 0DAA  
                                                  l3277 0D91  
                                                  l2751 05B8  
                                                  l2743 05A4  
                                                  l2735 058A  
                                                  l2727 0556  
                                                  l2719 04F9  
                                                  l2671 0425  
                                                  l2663 0413  
                                                  l2655 03FF  
                                                  l2647 03F1  
                                                  l2639 03D7  
                                                  l2911 0F95  
                                                  l2831 0E81  
                                                  l2823 0E6E  
                                                  l2815 0E62  
                                                  l2807 0E4F  
                                                  l2591 0D7E  
                                                  l2575 0D47  
                                                  l2583 0D63  
                                                  l2567 0D34  
                                                  l2559 0D05  
                                                  l3199 0BBF  
                                                  l3295 0DE1  
                                                  l3287 0DB8  
                                                  l3279 0D96  
                                                  l2761 05CC  
                                                  l2745 05AD  
                                                  l2753 05BA  
                                                  l2729 055B  
                                                  l2681 0471  
                                                  l2673 0429  
                                                  l2665 0417  
                                                  l2657 0405  
                                                  l2649 03F3  
                                                  l2921 0FDE  
                                                  l2913 0FAE  
                                                  l2905 0F7E  
                                                  l2825 0E73  
                                                  l2833 0E83  
                                                  l2817 0E65  
                                                  l2809 0E57  
                                                  l2593 0D83  
                                                  l2569 0D37  
                                                  l3289 0DC7  
                                                  l3379 0C5A  
                                                  l2771 05F3  
                                                  l2747 05B1  
                                                  l2739 0595  
                                                  l2755 05BF  
                                                  l2691 0491  
                                                  l2683 047C  
                                                  l2667 041B  
                                                  l2659 0409  
                                                  l2675 042F  
                                                  l2595 0362  
                                                  l2931 0FF5  
                                                  l2923 0FE2  
                                                  l2907 0F83  
                                                  l2915 0FB4  
                                                  l2851 0ECA  
                                                  l2835 0E93  
                                                  l2843 0EAA  
                                                  l2827 0E78  
                                                  l2819 0E69  
                                                  l3299 0DE7  
                                                  l2781 0632  
                                                  l2773 0613  
                                                  l2765 05D8  
                                                  l2757 05C2  
                                                  l2749 05B3  
                                                  l2685 047E  
                                                  l2693 0495  
                                                  l2677 0432  
                                                  l2669 0421  
                                                  l2597 0368  
                                                  l2925 0FEA  
                                                  l2917 0FC1  
                                                  l2909 0F91  
                                                  l2861 0EE9  
                                                  l2853 0ED2  
                                                  l2845 0EAF  
                                                  l2837 0E9F  
                                                  l2829 0E80  
                                                  l2941 0026  
                                                  l2589 0D6A  
                                                  l2791 064E  
                                                  l2783 0633  
                                                  l2775 061C  
                                                  l2767 05DF  
                                                  l2759 05C6  
                                                  l2695 04A1  
                                                  l2687 0484  
                                                  l2679 044F  
                                                  l2599 036A  
                                                  l2927 0FEF  
                                                  l2919 0FCF  
                                                  l2871 0F1B  
                                                  l2863 0EFB  
                                                  l2855 0EDA  
                                                  l2839 0EA1  
                                                  l2951 0039  
                                                  l2943 002A  
                                                  l2785 0637  
                                                  l2777 0621  
                                                  l2769 05EF  
                                                  l2697 04A6  
                                                  l2689 0487  
                                                  l2929 0FF3  
                                                  l2881 0F3A  
                                                  l2873 0F1C  
                                                  l2865 0EFF  
                                                  l2857 0EE2  
                                                  l2849 0EB8  
                                                  l2793 0E36  
                                                  l2961 0052  
                                                  l2953 0041  
                                                  l2945 002E  
                                                  l2937 0020  
                                                  l2787 063B  
                                                  l2779 062B  
                                                  l2891 0F53  
                                                  l2883 0F3C  
                                                  l2875 0F2A  
                                                  l2867 0F00  
                                                  l2859 0EE4  
                                                  l2795 0E3A  
                                                  l2971 0069  
                                                  l2963 0056  
                                                  l2955 0043  
                                                  l2947 002F  
                                                  l2939 0024  
                                                  l2789 0648  
                                                  l2885 0F45  
                                                  l2893 0F59  
                                                  l2869 0F09  
                                                  l2877 0F2C  
                                                  l2797 0E3C  
                                                  l2973 006B  
                                                  l2965 0057  
                                                  l2957 004B  
                                                  l2949 0034  
                                                  l2895 0F5D  
                                                  l2887 0F49  
                                                  l2879 0F32  
                                                  l2799 0E40  
                                                  l2991 00D8  
                                                  l2983 0086  
                                                  l2975 0073  
                                                  l2967 005C  
                                                  l2959 004E  
                                                  l2897 0F5E  
                                                  l2889 0F4A  
                                                  l2993 0102  
                                                  l2985 0094  
                                                  l2977 0078  
                                                  l2969 0061  
                                                  l2899 0F62  
                                                  l2995 011E  
                                                  l2987 00A1  
                                                  l2979 007D  
                                                  l2997 013A  
                                                  l2989 00BC  
                                                  l2999 0143  
                                                  STR_1 0817  
                                                  STR_2 0829  
                                                  STR_3 080F  
                                                  STR_4 0806  
                                                  STR_5 081E  
                                                  STR_6 0824  
                                                  u4000 0EAF  
                                                  u4001 0EAE  
                                                  u4010 0EE9  
                                                  u4011 0EE8  
                                                  u4100 0F49  
                                                  u4101 0F48  
                                                  u4200 0FDE  
                                                  u4120 0F5D  
                                                  u4040 0EFF  
                                                  u3400 0D4E  
                                                  u4201 0FDD  
                                                  u4121 0F5C  
                                                  u4041 0EFE  
                                                  u4025 0EEB  
                                                  u3401 0D4D  
                                                  u4210 0FF3  
                                                  u4130 0F62  
                                                  u3330 0BEF  
                                                  u4211 0FF2  
                                                  u4131 0F61  
                                                  u4115 0F4C  
                                                  u4035 0EF4  
                                                  u3331 0BEE  
                                                  u3500 03AB  
                                                  u4140 0F76  
                                                  u4060 0F1B  
                                                  u4220 002E  
                                                  u3420 0D62  
                                                  u3501 03AA  
                                                  u4205 0FDA  
                                                  u4141 0F75  
                                                  u4061 0F1A  
                                                  u4301 00CA  
                                                  u4221 002D  
                                                  u3421 0D61  
                                                  u3510 03BA  
                                                  u4150 0F7D  
                                                  u4070 0F32  
                                                  u3350 0C03  
                                                  u4302 00D1  
                                                  u4230 0034  
                                                  u3430 0D69  
                                                  u3511 03B9  
                                                  u4151 0F7C  
                                                  u4071 0F31  
                                                  u4055 0F02  
                                                  u3351 0C02  
                                                  u4311 00E6  
                                                  u4303 00D8  
                                                  u4231 0033  
                                                  u3431 0D68  
                                                  u3415 0D50  
                                                  u3360 0B76  
                                                  u3600 0484  
                                                  u3520 03C4  
                                                  u4160 0F83  
                                                  u4080 0F3A  
                                                  u4312 00ED  
                                                  u4240 0039  
                                                  u3361 0B75  
                                                  u3601 0483  
                                                  u3521 03C3  
                                                  u4161 0F82  
                                                  u4081 0F39  
                                                  u4065 0F17  
                                                  u3345 0BF6  
                                                  u4401 0215  
                                                  u4321 0110  
                                                  u4313 00F4  
                                                  u4241 0038  
                                                  u3530 03C9  
                                                  u4170 0F95  
                                                  u4410 023D  
                                                  u4402 021C  
                                                  u4322 0117  
                                                  u4250 0056  
                                                  u3450 0D7E  
                                                  u3370 0D12  
                                                  u3531 03C8  
                                                  u4171 0F94  
                                                  u4403 0223  
                                                  u4331 012C  
                                                  u4323 011E  
                                                  u4251 0055  
                                                  u3451 0D7D  
                                                  u3371 0D11  
                                                  u3700 0511  
                                                  u3620 049D  
                                                  u3540 03E9  
                                                  u4180 0FA4  
                                                  u4500 02BC  
                                                  u4332 0133  
                                                  u4260 005C  
                                                  u3460 0D83  
                                                  u3380 0D2D  
                                                  u3701 0510  
                                                  u3621 049C  
                                                  u3541 03E8  
                                                  u4501 02BB  
                                                  u4421 0249  
                                                  u4333 013A  
                                                  u4261 005B  
                                                  u3461 0D82  
                                                  u3445 0D6E  
                                                  u3630 04A1  
                                                  u3550 03ED  
                                                  u3470 0378  
                                                  u4190 0FC1  
                                                  u4510 02D0  
                                                  u4430 0265  
                                                  u4422 0250  
                                                  u4270 0061  
                                                  u3390 0D47  
                                                  u3711 0528  
                                                  u3703 050D  
                                                  u3631 04A0  
                                                  u3615 048A  
                                                  u3551 03EC  
                                                  u3471 0377  
                                                  u4191 0FC0  
                                                  u4095 0F3E  
                                                  u4511 02CF  
                                                  u4423 0257  
                                                  u4415 0238  
                                                  u4351 0160  
                                                  u4271 0060  
                                                  u3391 0D46  
                                                  u3800 05BF  
                                                  u3720 053C  
                                                  u3712 0529  
                                                  u3640 04A6  
                                                  u3560 044F  
                                                  u3480 0382  
                                                  u4520 02D7  
                                                  u4352 0167  
                                                  u4280 0078  
                                                  u4600 071C  
                                                  u3801 05BE  
                                                  u3721 053D  
                                                  u3713 052E  
                                                  u3641 04A5  
                                                  u3561 044E  
                                                  u3481 0381  
                                                  u4185 0F9F  
                                                  u4521 02D6  
                                                  u4441 0271  
                                                  u4361 018B  
                                                  u4353 016E  
                                                  u4345 013C  
                                                  u4281 0077  
                                                  u3385 0D28  
                                                  u4601 071B  
                                                  u3810 05C6  
                                                  u3730 055B  
                                                  u3722 0542  
                                                  u3714 052F  
                                                  u3570 045A  
                                                  u3490 0387  
                                                  u4530 02DD  
                                                  u4442 0278  
                                                  u4362 0192  
                                                  u4290 007D  
                                                  u4610 073C  
                                                  u3811 05C5  
                                                  u3731 055A  
                                                  u3723 0543  
                                                  u3715 0534  
                                                  u3651 04BC  
                                                  u3571 0458  
                                                  u3491 0386  
                                                  u4195 0FBD  
                                                  u4531 02DC  
                                                  u4443 027F  
                                                  u4435 0260  
                                                  u4363 0199  
                                                  u4291 007C  
                                                  u4611 073B  
                                                  u3900 0632  
                                                  u3820 05CC  
                                                  u3740 0583  
                                                  u3716 0535  
                                                  u3660 04CE  
                                                  u3652 04C3  
                                                  u3580 045B  
                                                  u4540 02EF  
                                                  u4700 07A8  
                                                  u3901 0631  
                                                  u3821 05CB  
                                                  u3741 0582  
                                                  u3661 04CD  
                                                  u3653 04CA  
                                                  u3565 044B  
                                                  u4541 02EE  
                                                  u4381 01BF  
                                                  u3910 0637  
                                                  u3830 05D7  
                                                  u3750 058A  
                                                  u3670 04D4  
                                                  u3590 0471  
                                                  u4550 02FE  
                                                  u4470 02A3  
                                                  u4382 01C6  
                                                  u4710 07B8  
                                                  u4630 0759  
                                                  u3911 0636  
                                                  u3831 05D6  
                                                  u3751 0589  
                                                  u3671 04D3  
                                                  u3591 0470  
                                                  u4471 02A2  
                                                  u4455 0281  
                                                  u4391 01EA  
                                                  u4383 01CD  
                                                  u4375 019B  
                                                  u4711 07B7  
                                                  u4631 0758  
                                                  u4800 07F1  
                                                  u3920 064E  
                                                  u3840 05DF  
                                                  u3680 04E7  
                                                  u4560 031B  
                                                  u4392 01F1  
                                                  u4720 07BC  
                                                  u4801 07F0  
                                                  u3921 064D  
                                                  u3841 05DE  
                                                  u3681 04E6  
                                                  u4561 031A  
                                                  u4465 0298  
                                                  u4393 01F8  
                                                  u4721 07BB  
                                                  u4705 07A3  
                                                  u4625 074B  
                                                  u3850 05F3  
                                                  u3770 05A4  
                                                  u3930 0E44  
                                                  u4570 0335  
                                                  u4490 02B7  
                                                  u4650 0779  
                                                  u4730 066A  
                                                  u4810 0C1E  
                                                  u3851 05F2  
                                                  u3771 05A3  
                                                  u3931 0E43  
                                                  u4571 0334  
                                                  u4555 02F9  
                                                  u4491 02B6  
                                                  u4651 0778  
                                                  u4731 0669  
                                                  u4811 0C1D  
                                                  u3860 0602  
                                                  u3780 05AD  
                                                  u3940 0E4A  
                                                  u4580 0351  
                                                  u4740 0704  
                                                  u4820 0C25  
                                                  u4900 0E20  
                                                  u3781 05AC  
                                                  u3765 0597  
                                                  u3941 0E49  
                                                  u4581 0350  
                                                  u4565 0317  
                                                  u4485 02A6  
                                                  u4645 076B  
                                                  u4741 0703  
                                                  u4733 0666  
                                                  u4821 0C24  
                                                  u4901 0E1F  
                                                  u4830 0BBE  
                                                  u3870 0613  
                                                  u3790 05B8  
                                                  u3950 0E4F  
                                                  u4670 0789  
                                                  u4590 0718  
                                                  u4750 0709  
                                                  u4831 0BBD  
                                                  u3871 0612  
                                                  u3791 05B7  
                                                  u3695 04ED  
                                                  u3951 0E4E  
                                                  u4575 0331  
                                                  u4671 0788  
                                                  u4591 0717  
                                                  u4751 0708  
                                                  u3880 061C  
                                                  u3960 0E6D  
                                                  u4680 078F  
                                                  u4760 070E  
                                                  u4840 0DA5  
                                                  u3881 061B  
                                                  u3865 05FD  
                                                  u3961 0E6C  
                                                  u4681 078E  
                                                  u4665 077E  
                                                  u4761 070D  
                                                  u4841 0DA4  
                                                  u4770 0B38  
                                                  u3890 0621  
                                                  u3970 0E73  
                                                  u4690 0793  
                                                  u4850 0DB8  
                                                  u4771 0B37  
                                                  u3891 0620  
                                                  u3971 0E72  
                                                  u4691 0792  
                                                  u4851 0DB7  
                                                  u4780 07CB  
                                                  u3980 0E78  
                                                  u4860 0DC7  
                                                  u4781 07CA  
                                                  u4917 0B65  
                                                  u3981 0E77  
                                                  u4861 0DC6  
                                                  u4790 07D6  
                                                  u3990 0E93  
                                                  u4870 0DE1  
                                                  u4791 07D5  
                                                  u3991 0E92  
                                                  u4871 0DE0  
                                                  u4880 0DF6  
                                                  u4881 0DF5  
                                                  u4890 0E0B  
                                                  u4891 0E0A  
                                                  _main 0D91  
                                                  btemp 007E  
                                ?_feedback_buzzer_parar 0070  
                                                  start 000E  
                                       ___fldiv@new_exp 0056  
comunicar_esp32_ler_comando_recebido@tamanho_max_buffer 0075  
                        delay_ms_variavel@milissegundos 0074  
                         ??_comunicar_esp32_enviar_byte 0074  
                                _indice_buffer_rx_usart 0079  
                                     _inicializar_motor 0B49  
                                         ___fltol@sign1 006E  
                                       __end_of___fladd 0652  
                                                 ?_main 0070  
                                       __end_of___fldiv 1000  
                            ?_feedback_buzzer_controlar 0020  
                                       __end_of___flmul 0362  
                                       __end_of___fltol 0D91  
                                                 _CMCON 009C  
                                                 i1l185 0CC6  
                                                 i1l188 0CFC  
                                                 i1l196 0CFC  
                                                 _RCREG 001A  
                                    ?_inicializar_motor 0070  
                                                 _SPBRG 0099  
                                                 _TXREG 0019  
                       feedback_buzzer_controlar@padrao 0029  
                                   ??_inicializar_motor 0074  
                                                 pclath 000A  
                         __end_of_motores_virar_direita 0B22  
             __end_of_comunicar_esp32_inicializar_usart 0710  
                   ??_comunicar_esp32_inicializar_usart 0078  
                    ?_comunicar_esp32_inicializar_usart 00CC  
                     _comunicar_esp32_inicializar_usart 0652  
                                                 status 0003  
                                                 wtemp0 007E  
                                       __initialization 0011  
                                          __end_of_main 0E36  
                   feedback_buzzer_controlar@repeticoes 0024  
                       comunicar_esp32_enviar_byte@dado 0074  
                             __end_of_inicializar_motor 0B55  
               feedback_buzzer_controlar@duracao_ms_off 0022  
                                                ??_main 0078  
                                                _ADCON1 009F  
                                                i1l2461 0CB4  
                                                i1l2463 0CBA  
                                                i1l2481 0CDF  
                                                i1l2473 0CC9  
                                                i1l2465 0CC0  
                                                i1l2491 0CED  
                                                i1l2483 0CE2  
                                                i1l2475 0CCE  
                                                i1l2467 0CC4  
                                                i1l2493 0CF3  
                                                i1l2477 0CD4  
                                                i1l2469 0CC7  
                                                i1l2495 0CF9  
                                                i1l2479 0CDA  
                                                i1l2487 0CE6  
                                                u330_20 0CDA  
                                                u330_21 0CD9  
                                                u331_20 0CEC  
                                                u331_21 0CEB  
                                                u332_20 0CF3  
                                                u332_21 0CF2  
                                                u325_20 0CBA  
                                                u325_21 0CB9  
                                                u326_20 0CC0  
                                                u326_21 0CBF  
                                                u327_20 0CC4  
                                                u327_21 0CC3  
                                                u328_20 0CCE  
                                                u328_21 0CCD  
                                                u329_20 0CD4  
                                                u329_21 0CD3  
                               ?_motores_virar_esquerda 0070  
                                      __end_of___xxtofl 07C6  
                                   _motores_parar_freio 0B06  
                                             ??___fladd 0066  
                                             ??___fldiv 004C  
                                             ??___flmul 0032  
                                             ??___fltol 00C8  
                                                _strcmp 0C08  
                                  ?_motores_parar_freio 0070  
                                                saved_w 007E  
                          __end_of_feedback_inicializar 0B62  
                        __end_of_motores_virar_esquerda 0B29  
                                          ___xxtofl@arg 0026  
                                          ___xxtofl@exp 0025  
                                          ___xxtofl@val 0074  
                               __end_of__initialization 001C  
                                            ___fltol@f1 00C4  
                                        __pcstackCOMMON 0070  
                                 ??_motores_parar_freio 0074  
                                            __pbssBANK1 00A0  
                               ??_feedback_buzzer_parar 0074  
                       ??_comunicar_esp32_enviar_string 0076  
                                     __end_of__Umul8_16 0C08  
   comunicar_esp32_ler_comando_recebido@tamanho_comando 0020  
                                            __pmaintext 0D91  
                                   _inicializar_sistema 0BBF  
                                            __pintentry 0004  
                                               ?_strcmp 0074  
                           ??_feedback_buzzer_controlar 0025  
                                             ?___xxtofl 0074  
                                     _delay_ms_variavel 0B62  
                                  ?_inicializar_sistema 0070  
    comunicar_esp32_ler_comando_recebido@buffer_destino 0074  
                                            __stringtab 0800  
                                    ?_delay_ms_variavel 0074  
                                   ??_delay_ms_variavel 0076  
                                  _feedback_inicializar 0B55  
                                               ___fladd 0362  
                                               ___fldiv 0E36  
                                               ___flmul 0020  
                                               ___fltol 0D05  
                                               __ptext1 0C08  
                                               __ptext2 0B22  
                                               __ptext3 0B1B  
                                               __ptext4 0B14  
                                               __ptext5 0B0D  
                                               __ptext6 0BBF  
                                               __ptext7 0B49  
                                               __ptext8 0B06  
                                               __ptext9 0B55  
                                            ??___xxtofl 0020  
                             __end_of_delay_ms_variavel 0B77  
                                 ??_inicializar_sistema 0078  
                                               clrloop0 0B2A  
                                  end_of_initialization 001C  
                             _feedback_buzzer_controlar 0C75  
                                 _motores_virar_direita 0B1B  
                                 ?_feedback_inicializar 0070  
                   __end_of_comunicar_esp32_enviar_byte 0B3D  
                           _comunicar_esp32_enviar_byte 0B31  
                                             _RCSTAbits 0018  
                                            _motores_re 0B14  
                                               strcmp@l 0074  
                                               strcmp@r 0075  
                                     __end_of_usart_isr 0D05  
                                             _PORTBbits 0006  
                                             _PORTDbits 0008  
                                           ___fladd@grs 00C3  
                                         ___xxtofl@sign 0024  
                                             _TRISBbits 0086  
                                             _TRISCbits 0087  
                                             _TRISDbits 0088  
                                           ___fldiv@grs 0058  
                                           ___fldiv@rem 0051  
          __end_of_feedback_indicar_movimento_andamento 0B49  
                ??_feedback_indicar_movimento_andamento 0077  
                 ?_feedback_indicar_movimento_andamento 0070  
                  _feedback_indicar_movimento_andamento 0B3D  
                                           ___flmul@grs 0039  
                                             _TXSTAbits 0098  
                 feedback_buzzer_controlar@off_duration 0027  
                                        __end_of_strcmp 0C38  
                                   start_initialization 0011  
                feedback_buzzer_controlar@duracao_ms_on 0020  
                        ??_feedback_led_rgb_definir_cor 0074  
                                ?_motores_virar_direita 0070  
                       feedback_led_rgb_definir_cor@cor 0076  
                         __end_of_feedback_buzzer_parar 0B06  
                                ??_feedback_inicializar 0074  
                                             __Umul8_16 0BDF  
                           __end_of_motores_parar_freio 0B0D  
                                           ?_motores_re 0070  
                                              ??_strcmp 0076  
                                             ___fladd@a 0062  
                                             ___fladd@b 005E  
                                             ___fldiv@a 0044  
                                             ___fldiv@b 0048  
                                             ___flmul@a 002E  
                                             ___flmul@b 002A  
                                           __pbssCOMMON 0078  
                                             ___latbits 0002  
                                         __pcstackBANK0 0020  
                                         __pcstackBANK1 00C0  
                                         __pcstackBANK3 0190  
               __end_of_feedback_indicar_sistema_pronto 0BA3  
                     ??_feedback_indicar_sistema_pronto 0077  
                      ?_feedback_indicar_sistema_pronto 0070  
                       _feedback_indicar_sistema_pronto 0B8D  
                                        _motores_frente 0B0D  
                               _flag_comando_disponivel 0078  
                                              ?___fladd 005E  
                                              ?___fldiv 0044  
                                              ?___flmul 002A  
                                              ?___fltol 00C4  
                                            ?__Umul8_16 0074  
                                             __pstrings 0800  
                              ??_motores_virar_esquerda 0074  
                                     interrupt_function 0004  
                                __end_of_motores_frente 0B14  
                                             clear_ram0 0B29  
                                              _PIE1bits 008C  
                                              _PIR1bits 000C  
            comunicar_esp32_inicializar_usart@baud_rate 00CC  
                     __end_of_feedback_buzzer_controlar 0CB4  
                                           __stringbase 0805  
                           __end_of_inicializar_sistema 0BDF  
                                       _buffer_rx_usart 00A0  
                                             _usart_isr 0CB4  
                 comunicar_esp32_ler_comando_recebido@i 0021  
                                       ?_motores_frente 0070  
          __end_of_comunicar_esp32_ler_comando_recebido 07FF  
                ??_comunicar_esp32_ler_comando_recebido 0076  
                 ?_comunicar_esp32_ler_comando_recebido 0074  
                  _comunicar_esp32_ler_comando_recebido 07C6  
                                           ??__Umul8_16 0076  
                                    __end_of__stringtab 0806  
                                              ___xxtofl 0710  
                                            ?_usart_isr 0070  
                                              __ptext10 0652  
                                              __ptext11 0710  
                                              __ptext20 0B77  
                                              __ptext12 0D05  
                                              __ptext21 0C38  
                                              __ptext13 0020  
                                              __ptext22 0C75  
                                              __ptext14 0BDF  
                                              __ptext23 0B62  
                                              __ptext15 0E36  
                                              __ptext24 07C6  
                                              __ptext16 0362  
                                              __ptext25 0BA3  
                                              __ptext17 0B8D  
                                              __ptext26 0B31  
                                              __ptext18 0B3D  
                                              __ptext27 0B00  
                                              __ptext19 0B02  
                                              __ptext28 0CB4  
                               ??_motores_virar_direita 0074  
                                          ??_motores_re 0074  
                 __end_of_comunicar_esp32_enviar_string 0BBF  
                         _comunicar_esp32_enviar_string 0BA3  
   __end_of_comunicar_esp32_comando_recebido_disponivel 0B02  
         ??_comunicar_esp32_comando_recebido_disponivel 0074  
          ?_comunicar_esp32_comando_recebido_disponivel 0070  
           _comunicar_esp32_comando_recebido_disponivel 0B00  
                                            _INTCONbits 000B  
                                              intlevel1 0000  
                                    __end_of_motores_re 0B1B  
                                             stringcode 0800  
                                 _feedback_buzzer_parar 0B02  
                                _motores_virar_esquerda 0B22  
                                usart_isr@byte_recebido 0073  
                  __end_of_feedback_led_rgb_definir_cor 0C75  
                          _feedback_led_rgb_definir_cor 0C38  
                                __Umul8_16@multiplicand 0074  
                                           ??_usart_isr 0070  
                                              stringdir 0800  
                                              stringtab 0800  
                                         ___fladd@signs 00C0  
             __end_of_feedback_indicar_comunicacao_uart 0B8D  
                   ??_feedback_indicar_comunicacao_uart 0077  
                    ?_feedback_indicar_comunicacao_uart 0070  
                     _feedback_indicar_comunicacao_uart 0B77  
                                          ___fladd@aexp 00C1  
                                          ___fladd@bexp 00C2  
                                  __Umul8_16@multiplier 0024  
                                     __Umul8_16@product 0020  
                                  main@comando_recebido 0190  
